---
triple:          'arm64-apple-darwin'
binary-path:     '/Users/Work/Documents/Self_Study2/C++_GameProg/my_implementations/shoot_em_up/main'
relocations:
  - { offset: 0x45, size: 0x8, addend: 0x0, symName: __ZN5ColorL5BlackE, symObjAddr: 0x490C4, symBinAddr: 0x10001C064, symSize: 0x0 }
  - { offset: 0x5F, size: 0x8, addend: 0x0, symName: __ZN5ColorL5WhiteE, symObjAddr: 0x490D0, symBinAddr: 0x10001C070, symSize: 0x0 }
  - { offset: 0x79, size: 0x8, addend: 0x0, symName: __ZN5ColorL3RedE, symObjAddr: 0x490DC, symBinAddr: 0x10001C07C, symSize: 0x0 }
  - { offset: 0x93, size: 0x8, addend: 0x0, symName: __ZN5ColorL5GreenE, symObjAddr: 0x490E8, symBinAddr: 0x10001C088, symSize: 0x0 }
  - { offset: 0xAD, size: 0x8, addend: 0x0, symName: __ZN5ColorL4BlueE, symObjAddr: 0x490F4, symBinAddr: 0x10001C094, symSize: 0x0 }
  - { offset: 0xC7, size: 0x8, addend: 0x0, symName: __ZN5ColorL6YellowE, symObjAddr: 0x49100, symBinAddr: 0x10001C0A0, symSize: 0x0 }
  - { offset: 0xE1, size: 0x8, addend: 0x0, symName: __ZN5ColorL11LightYellowE, symObjAddr: 0x4910C, symBinAddr: 0x10001C0AC, symSize: 0x0 }
  - { offset: 0xFB, size: 0x8, addend: 0x0, symName: __ZN5ColorL9LightBlueE, symObjAddr: 0x49118, symBinAddr: 0x10001C0B8, symSize: 0x0 }
  - { offset: 0x115, size: 0x8, addend: 0x0, symName: __ZN5ColorL9LightPinkE, symObjAddr: 0x49124, symBinAddr: 0x10001C0C4, symSize: 0x0 }
  - { offset: 0x12F, size: 0x8, addend: 0x0, symName: __ZN5ColorL10LightGreenE, symObjAddr: 0x49130, symBinAddr: 0x10001C0D0, symSize: 0x0 }
  - { offset: 0x95C2, size: 0x8, addend: 0x0, symName: __ZNSt3__1neB8ne180100IPP9ComponentEEbRKNS_11__wrap_iterIT_EES8_, symObjAddr: 0x3E4, symBinAddr: 0x1000038A0, symSize: 0x34 }
  - { offset: 0x9605, size: 0x8, addend: 0x0, symName: __ZNSt3__14findB8ne180100INS_11__wrap_iterIPP9ComponentEES3_EET_S6_S6_RKT0_, symObjAddr: 0x840, symBinAddr: 0x100003CFC, symSize: 0x78 }
  - { offset: 0x966D, size: 0x8, addend: 0x0, symName: __ZNSt3__1eqB8ne180100IPP9ComponentEEbRKNS_11__wrap_iterIT_EES8_, symObjAddr: 0xAD0, symBinAddr: 0x100003F8C, symSize: 0x48 }
  - { offset: 0x96B0, size: 0x8, addend: 0x0, symName: __ZNSt3__112__to_addressB8ne180100IP9ComponentEEPT_S4_, symObjAddr: 0xF70, symBinAddr: 0x10000442C, symSize: 0x14 }
  - { offset: 0x96E5, size: 0x8, addend: 0x0, symName: __ZNSt3__119__libcpp_deallocateB8ne180100EPvmm, symObjAddr: 0xFD8, symBinAddr: 0x100004494, symSize: 0x60 }
  - { offset: 0x974A, size: 0x8, addend: 0x0, symName: __ZNSt3__124__is_overaligned_for_newB8ne180100Em, symObjAddr: 0x1038, symBinAddr: 0x1000044F4, symSize: 0x20 }
  - { offset: 0x9778, size: 0x8, addend: 0x0, symName: __ZNSt3__127__do_deallocate_handle_sizeB8ne180100IJSt11align_val_tEEEvPvmDpT_, symObjAddr: 0x1058, symBinAddr: 0x100004514, symSize: 0x30 }
  - { offset: 0x97CB, size: 0x8, addend: 0x0, symName: __ZNSt3__127__do_deallocate_handle_sizeB8ne180100IJEEEvPvmDpT_, symObjAddr: 0x1088, symBinAddr: 0x100004544, symSize: 0x28 }
  - { offset: 0x9809, size: 0x8, addend: 0x0, symName: __ZNSt3__124__libcpp_operator_deleteB8ne180100IJPvSt11align_val_tEEEvDpT_, symObjAddr: 0x10B0, symBinAddr: 0x10000456C, symSize: 0x2C }
  - { offset: 0x9852, size: 0x8, addend: 0x0, symName: __ZNSt3__124__libcpp_operator_deleteB8ne180100IJPvEEEvDpT_, symObjAddr: 0x10DC, symBinAddr: 0x100004598, symSize: 0x24 }
  - { offset: 0x9887, size: 0x8, addend: 0x0, symName: __ZNSt3__1miB8ne180100IPKP9ComponentPS2_EEDTmicldtfp_4baseEcldtfp0_4baseEERKNS_11__wrap_iterIT_EERKNS7_IT0_EE, symObjAddr: 0x121C, symBinAddr: 0x1000046D8, symSize: 0x48 }
  - { offset: 0x9906, size: 0x8, addend: 0x0, symName: __ZNSt3__113move_backwardB8ne180100IPP9ComponentS3_EET0_T_S5_S4_, symObjAddr: 0x1B00, symBinAddr: 0x100004FBC, symSize: 0x40 }
  - { offset: 0x9960, size: 0x8, addend: 0x0, symName: __ZNSt3__115__move_backwardB8ne180100INS_17_ClassicAlgPolicyEPP9ComponentS4_S4_EENS_4pairIT0_T2_EES6_T1_S7_, symObjAddr: 0x1B68, symBinAddr: 0x100005024, symSize: 0x44 }
  - { offset: 0x99CC, size: 0x8, addend: 0x0, symName: __ZNSt3__123__dispatch_copy_or_moveB8ne180100INS_17_ClassicAlgPolicyENS_20__move_backward_loopIS1_EENS_23__move_backward_trivialEPP9ComponentS7_S7_EENS_4pairIT2_T4_EES9_T3_SA_, symObjAddr: 0x1BAC, symBinAddr: 0x100005068, symSize: 0x44 }
  - { offset: 0x9A4A, size: 0x8, addend: 0x0, symName: __ZNSt3__121__unwrap_and_dispatchB8ne180100INS_10__overloadINS_20__move_backward_loopINS_17_ClassicAlgPolicyEEENS_23__move_backward_trivialEEEPP9ComponentS9_S9_Li0EEENS_4pairIT0_T2_EESB_T1_SC_, symObjAddr: 0x1BF0, symBinAddr: 0x1000050AC, symSize: 0xB4 }
  - { offset: 0x9AD8, size: 0x8, addend: 0x0, symName: __ZNSt3__114__unwrap_rangeB8ne180100IPP9ComponentS3_EENS_4pairIT0_S5_EET_S7_, symObjAddr: 0x1CA4, symBinAddr: 0x100005160, symSize: 0x60 }
  - { offset: 0x9C9C, size: 0x8, addend: 0x0, symName: __ZNSt3__113__unwrap_iterB8ne180100IPP9ComponentNS_18__unwrap_iter_implIS3_Lb1EEELi0EEEDTclsrT0_8__unwrapclsr3stdE7declvalIT_EEEES7_, symObjAddr: 0x1D4C, symBinAddr: 0x100005208, symSize: 0x24 }
  - { offset: 0x9CE0, size: 0x8, addend: 0x0, symName: __ZNSt3__19make_pairB8ne180100IPP9ComponentS3_EENS_4pairINS_18__unwrap_ref_decayIT_E4typeENS5_IT0_E4typeEEEOS6_OS9_, symObjAddr: 0x1D70, symBinAddr: 0x10000522C, symSize: 0x38 }
  - { offset: 0x9D2F, size: 0x8, addend: 0x0, symName: __ZNSt3__114__rewrap_rangeB8ne180100IPP9ComponentS3_EET_S4_T0_, symObjAddr: 0x1DA8, symBinAddr: 0x100005264, symSize: 0x2C }
  - { offset: 0x9D7B, size: 0x8, addend: 0x0, symName: __ZNSt3__113__rewrap_iterB8ne180100IPP9ComponentS3_NS_18__unwrap_iter_implIS3_Lb1EEEEET_S6_T0_, symObjAddr: 0x1DD4, symBinAddr: 0x100005290, symSize: 0x3C }
  - { offset: 0x9DD0, size: 0x8, addend: 0x0, symName: __ZNSt3__128__copy_backward_trivial_implB8ne180100IP9ComponentS2_EENS_4pairIPT_PT0_EES5_S5_S7_, symObjAddr: 0x1E10, symBinAddr: 0x1000052CC, symSize: 0x90 }
  - { offset: 0x9E38, size: 0x8, addend: 0x0, symName: __ZNSt3__119__constexpr_memmoveB8ne180100IP9ComponentS2_Li0EEEPT_S4_PT0_NS_15__element_countE, symObjAddr: 0x1EA0, symBinAddr: 0x10000535C, symSize: 0x64 }
  - { offset: 0x9EA6, size: 0x8, addend: 0x0, symName: __ZNSt3__19make_pairB8ne180100IRPP9ComponentS4_EENS_4pairINS_18__unwrap_ref_decayIT_E4typeENS6_IT0_E4typeEEEOS7_OSA_, symObjAddr: 0x1F04, symBinAddr: 0x1000053C0, symSize: 0x38 }
  - { offset: 0x9F48, size: 0x8, addend: 0x0, symName: __ZNSt3__13maxB8ne180100ImEERKT_S3_S3_, symObjAddr: 0x210C, symBinAddr: 0x1000055C8, symSize: 0x2C }
  - { offset: 0x9F8B, size: 0x8, addend: 0x0, symName: __ZNSt3__13minB8ne180100ImEERKT_S3_S3_, symObjAddr: 0x2138, symBinAddr: 0x1000055F4, symSize: 0x2C }
  - { offset: 0xA1B8, size: 0x8, addend: 0x0, symName: __ZNSt3__13minB8ne180100ImNS_6__lessIvvEEEERKT_S5_S5_T0_, symObjAddr: 0x21C4, symBinAddr: 0x100005680, symSize: 0x54 }
  - { offset: 0xA257, size: 0x8, addend: 0x0, symName: __ZNSt3__120__throw_length_errorB8ne180100EPKc, symObjAddr: 0x22A0, symBinAddr: 0x10000575C, symSize: 0x64 }
  - { offset: 0xA27F, size: 0x8, addend: 0x0, symName: __ZNSt3__13maxB8ne180100ImNS_6__lessIvvEEEERKT_S5_S5_T0_, symObjAddr: 0x237C, symBinAddr: 0x100005838, symSize: 0x54 }
  - { offset: 0xA2D9, size: 0x8, addend: 0x0, symName: __ZNSt3__119__allocate_at_leastB8ne180100INS_9allocatorIP9ComponentEEEENS_19__allocation_resultINS_16allocator_traitsIT_E7pointerEEERS7_m, symObjAddr: 0x24E0, symBinAddr: 0x10000599C, symSize: 0x40 }
  - { offset: 0xA31C, size: 0x8, addend: 0x0, symName: __ZNSt3__117__libcpp_allocateB8ne180100Emm, symObjAddr: 0x2664, symBinAddr: 0x100005B20, symSize: 0x60 }
  - { offset: 0xA376, size: 0x8, addend: 0x0, symName: __ZNSt3__121__libcpp_operator_newB8ne180100IJmSt11align_val_tEEEPvDpT_, symObjAddr: 0x26C4, symBinAddr: 0x100005B80, symSize: 0x2C }
  - { offset: 0xA3C3, size: 0x8, addend: 0x0, symName: __ZNSt3__121__libcpp_operator_newB8ne180100IJmEEEPvDpT_, symObjAddr: 0x26F0, symBinAddr: 0x100005BAC, symSize: 0x24 }
  - { offset: 0xA3FC, size: 0x8, addend: 0x0, symName: __ZNSt3__14moveB8ne180100IPP9ComponentS3_EET0_T_S5_S4_, symObjAddr: 0x2778, symBinAddr: 0x100005C34, symSize: 0x40 }
  - { offset: 0xA456, size: 0x8, addend: 0x0, symName: __ZNSt3__14swapB8ne180100IPP9ComponentEENS_9enable_ifIXaasr21is_move_constructibleIT_EE5valuesr18is_move_assignableIS5_EE5valueEvE4typeERS5_S8_, symObjAddr: 0x284C, symBinAddr: 0x100005D08, symSize: 0x3C }
  - { offset: 0xA4A7, size: 0x8, addend: 0x0, symName: __ZNSt3__16__moveB8ne180100INS_17_ClassicAlgPolicyEPP9ComponentS4_S4_EENS_4pairIT0_T2_EES6_T1_S7_, symObjAddr: 0x2888, symBinAddr: 0x100005D44, symSize: 0x44 }
  - { offset: 0xA513, size: 0x8, addend: 0x0, symName: __ZNSt3__123__dispatch_copy_or_moveB8ne180100INS_17_ClassicAlgPolicyENS_11__move_loopIS1_EENS_14__move_trivialEPP9ComponentS7_S7_EENS_4pairIT2_T4_EES9_T3_SA_, symObjAddr: 0x28CC, symBinAddr: 0x100005D88, symSize: 0x44 }
  - { offset: 0xA591, size: 0x8, addend: 0x0, symName: __ZNSt3__121__unwrap_and_dispatchB8ne180100INS_10__overloadINS_11__move_loopINS_17_ClassicAlgPolicyEEENS_14__move_trivialEEEPP9ComponentS9_S9_Li0EEENS_4pairIT0_T2_EESB_T1_SC_, symObjAddr: 0x2910, symBinAddr: 0x100005DCC, symSize: 0xB4 }
  - { offset: 0xA665, size: 0x8, addend: 0x0, symName: __ZNSt3__119__copy_trivial_implB8ne180100IP9ComponentS2_EENS_4pairIPT_PT0_EES5_S5_S7_, symObjAddr: 0x2A0C, symBinAddr: 0x100005EC8, symSize: 0x80 }
  - { offset: 0xA6CD, size: 0x8, addend: 0x0, symName: __ZNSt3__19make_pairB8ne180100IRPP9ComponentS3_EENS_4pairINS_18__unwrap_ref_decayIT_E4typeENS6_IT0_E4typeEEEOS7_OSA_, symObjAddr: 0x2A8C, symBinAddr: 0x100005F48, symSize: 0x38 }
  - { offset: 0xA71C, size: 0x8, addend: 0x0, symName: __ZNSt3__18distanceB8ne180100INS_13move_iteratorIPP9ComponentEEEENS_15iterator_traitsIT_E15difference_typeES7_S7_, symObjAddr: 0x2C10, symBinAddr: 0x1000060CC, symSize: 0x3C }
  - { offset: 0xA75F, size: 0x8, addend: 0x0, symName: __ZNSt3__110__distanceB8ne180100INS_13move_iteratorIPP9ComponentEEEENS_15iterator_traitsIT_E15difference_typeES7_S7_NS_26random_access_iterator_tagE, symObjAddr: 0x2D50, symBinAddr: 0x10000620C, symSize: 0x30 }
  - { offset: 0xA7AC, size: 0x8, addend: 0x0, symName: __ZNSt3__1miB8ne180100IPP9ComponentS3_EEDTmicldtfp_4baseEcldtfp0_4baseEERKNS_13move_iteratorIT_EERKNS5_IT0_EE, symObjAddr: 0x2D80, symBinAddr: 0x10000623C, symSize: 0x48 }
  - { offset: 0xA7FB, size: 0x8, addend: 0x0, symName: __ZNSt3__142__uninitialized_allocator_move_if_noexceptB8ne180100INS_9allocatorIP9ComponentEENS_16reverse_iteratorIPS3_EES7_S3_vEET1_RT_T0_SB_S8_, symObjAddr: 0x2E00, symBinAddr: 0x1000062BC, symSize: 0x78 }
  - { offset: 0xA878, size: 0x8, addend: 0x0, symName: __ZNSt3__142__uninitialized_allocator_move_if_noexceptB8ne180100INS_9allocatorIP9ComponentEEPS3_S5_S3_vEET1_RT_T0_S9_S6_, symObjAddr: 0x2EC4, symBinAddr: 0x100006380, symSize: 0x38 }
  - { offset: 0xA8F4, size: 0x8, addend: 0x0, symName: __ZNSt3__14moveB8ne180100INS_16reverse_iteratorIPP9ComponentEES5_EET0_T_S7_S6_, symObjAddr: 0x2F10, symBinAddr: 0x1000063CC, symSize: 0x78 }
  - { offset: 0xA94E, size: 0x8, addend: 0x0, symName: __ZNSt3__16__moveB8ne180100INS_17_ClassicAlgPolicyENS_16reverse_iteratorIPP9ComponentEES6_S6_EENS_4pairIT0_T2_EES8_T1_S9_, symObjAddr: 0x2F88, symBinAddr: 0x100006444, symSize: 0x64 }
  - { offset: 0xA9BA, size: 0x8, addend: 0x0, symName: __ZNSt3__123__dispatch_copy_or_moveB8ne180100INS_17_ClassicAlgPolicyENS_11__move_loopIS1_EENS_14__move_trivialENS_16reverse_iteratorIPP9ComponentEES9_S9_EENS_4pairIT2_T4_EESB_T3_SC_, symObjAddr: 0x2FEC, symBinAddr: 0x1000064A8, symSize: 0x64 }
  - { offset: 0xAA38, size: 0x8, addend: 0x0, symName: __ZNSt3__121__unwrap_and_dispatchB8ne180100INS_10__overloadINS_11__move_loopINS_17_ClassicAlgPolicyEEENS_14__move_trivialEEENS_16reverse_iteratorIPP9ComponentEESB_SB_Li0EEENS_4pairIT0_T2_EESD_T1_SE_, symObjAddr: 0x3050, symBinAddr: 0x10000650C, symSize: 0x12C }
  - { offset: 0xAAC8, size: 0x8, addend: 0x0, symName: __ZNSt3__114__unwrap_rangeB8ne180100INS_16reverse_iteratorIPP9ComponentEES5_EENS_4pairIT0_S7_EET_S9_, symObjAddr: 0x317C, symBinAddr: 0x100006638, symSize: 0x84 }
  - { offset: 0xAC43, size: 0x8, addend: 0x0, symName: __ZNSt3__113__unwrap_iterB8ne180100INS_16reverse_iteratorIPP9ComponentEENS_18__unwrap_iter_implIS5_Lb0EEELi0EEEDTclsrT0_8__unwrapclsr3stdE7declvalIT_EEEES9_, symObjAddr: 0x32A0, symBinAddr: 0x10000675C, symSize: 0x44 }
  - { offset: 0xAC87, size: 0x8, addend: 0x0, symName: __ZNSt3__19make_pairB8ne180100INS_16reverse_iteratorIPP9ComponentEES5_EENS_4pairINS_18__unwrap_ref_decayIT_E4typeENS7_IT0_E4typeEEEOS8_OSB_, symObjAddr: 0x32E4, symBinAddr: 0x1000067A0, symSize: 0x38 }
  - { offset: 0xACD6, size: 0x8, addend: 0x0, symName: __ZNSt3__114__rewrap_rangeB8ne180100INS_16reverse_iteratorIPP9ComponentEES5_EET_S6_T0_, symObjAddr: 0x331C, symBinAddr: 0x1000067D8, symSize: 0x5C }
  - { offset: 0xAD22, size: 0x8, addend: 0x0, symName: __ZNSt3__113__rewrap_iterB8ne180100INS_16reverse_iteratorIPP9ComponentEES5_NS_18__unwrap_iter_implIS5_Lb0EEEEET_S8_T0_, symObjAddr: 0x3378, symBinAddr: 0x100006834, symSize: 0x74 }
  - { offset: 0xAD77, size: 0x8, addend: 0x0, symName: __ZNSt3__1neB8ne180100IPP9ComponentS3_EEbRKNS_16reverse_iteratorIT_EERKNS4_IT0_EE, symObjAddr: 0x33EC, symBinAddr: 0x1000068A8, symSize: 0x48 }
  - { offset: 0xAE6D, size: 0x8, addend: 0x0, symName: __ZNSt3__113__rewrap_iterB8ne180100INS_11__wrap_iterIPP9ComponentEES4_NS_18__unwrap_iter_implIS5_Lb1EEEEET_S8_T0_, symObjAddr: 0x377C, symBinAddr: 0x100006C38, symSize: 0x4C }
  - { offset: 0xAEC2, size: 0x8, addend: 0x0, symName: __ZNSt3__111__find_implB8ne180100IPP9ComponentS3_S2_NS_10__identityEEET_S5_T0_RKT1_RT2_, symObjAddr: 0x37C8, symBinAddr: 0x100006C84, symSize: 0x88 }
  - { offset: 0xAF3C, size: 0x8, addend: 0x0, symName: __ZNSt3__113__unwrap_iterB8ne180100INS_11__wrap_iterIPP9ComponentEENS_18__unwrap_iter_implIS5_Lb1EEELi0EEEDTclsrT0_8__unwrapclsr3stdE7declvalIT_EEEES9_, symObjAddr: 0x3850, symBinAddr: 0x100006D0C, symSize: 0x2C }
  - { offset: 0xAFD3, size: 0x8, addend: 0x0, symName: __ZNSt3__112__to_addressB8ne180100INS_11__wrap_iterIPP9ComponentEEvEEu7__decayIDTclsr19__to_address_helperIT_EE6__callclsr3stdE7declvalIRKS6_EEEEES8_, symObjAddr: 0x3914, symBinAddr: 0x100006DD0, symSize: 0x24 }
  - { offset: 0xB0AE, size: 0x8, addend: 0x0, symName: __ZNSt3__18__invokeB8ne180100IRNS_10__identityEJRP9ComponentEEEDTclclsr3stdE7declvalIT_EEspclsr3stdE7declvalIT0_EEEEOS6_DpOS7_, symObjAddr: 0x39BC, symBinAddr: 0x100006E78, symSize: 0x2C }
  - { offset: 0xB12C, size: 0x8, addend: 0x0, symName: __ZNSt3__1miB8ne180100IPKP9ComponentS4_EEDTmicldtfp_4baseEcldtfp0_4baseEERKNS_11__wrap_iterIT_EERKNS6_IT0_EE, symObjAddr: 0x3A28, symBinAddr: 0x100006EE4, symSize: 0x48 }
  - { offset: 0xC0A1, size: 0x8, addend: 0x0, symName: __ZSt28__throw_bad_array_new_lengthB8ne180100v, symObjAddr: 0x2630, symBinAddr: 0x100005AEC, symSize: 0x34 }
  - { offset: 0xE00F, size: 0x8, addend: 0x0, symName: __ZNSt3__16vectorIP9ComponentNS_9allocatorIS2_EEE26__swap_out_circular_bufferERNS_14__split_bufferIS2_RS4_EEPS2_, symObjAddr: 0x17DC, symBinAddr: 0x100004C98, symSize: 0x14C }
  - { offset: 0xE09B, size: 0x8, addend: 0x0, symName: __ZN7Vector3C1Efff, symObjAddr: 0x0, symBinAddr: 0x1000034BC, symSize: 0x44 }
  - { offset: 0xE0F0, size: 0x8, addend: 0x0, symName: __ZN5ActorC2EP4Game, symObjAddr: 0x44, symBinAddr: 0x100003500, symSize: 0x80 }
  - { offset: 0xE128, size: 0x8, addend: 0x0, symName: __ZNSt3__16vectorIP9ComponentNS_9allocatorIS2_EEEC1B8ne180100Ev, symObjAddr: 0xC4, symBinAddr: 0x100003580, symSize: 0x2C }
  - { offset: 0xE150, size: 0x8, addend: 0x0, symName: __ZNSt3__16vectorIP9ComponentNS_9allocatorIS2_EEED1B8ne180100Ev, symObjAddr: 0xF0, symBinAddr: 0x1000035AC, symSize: 0x2C }
  - { offset: 0xE178, size: 0x8, addend: 0x0, symName: __ZN5ActorC1EP4Game, symObjAddr: 0x11C, symBinAddr: 0x1000035D8, symSize: 0x34 }
  - { offset: 0xE1B0, size: 0x8, addend: 0x0, symName: __ZN5ActorD2Ev, symObjAddr: 0x150, symBinAddr: 0x10000360C, symSize: 0xB0 }
  - { offset: 0xE1DA, size: 0x8, addend: 0x0, symName: __ZNKSt3__16vectorIP9ComponentNS_9allocatorIS2_EEE5emptyB8ne180100Ev, symObjAddr: 0x210, symBinAddr: 0x1000036CC, symSize: 0x28 }
  - { offset: 0xE1FE, size: 0x8, addend: 0x0, symName: __ZNSt3__16vectorIP9ComponentNS_9allocatorIS2_EEE4backB8ne180100Ev, symObjAddr: 0x238, symBinAddr: 0x1000036F4, symSize: 0x1C }
  - { offset: 0xE222, size: 0x8, addend: 0x0, symName: __ZN5ActorD1Ev, symObjAddr: 0x254, symBinAddr: 0x100003710, symSize: 0x2C }
  - { offset: 0xE24C, size: 0x8, addend: 0x0, symName: __ZN5ActorD0Ev, symObjAddr: 0x280, symBinAddr: 0x10000373C, symSize: 0x30 }
  - { offset: 0xE276, size: 0x8, addend: 0x0, symName: __ZN5Actor6UpdateEf, symObjAddr: 0x2B0, symBinAddr: 0x10000376C, symSize: 0x44 }
  - { offset: 0xE2AA, size: 0x8, addend: 0x0, symName: __ZN5Actor16UpdateComponentsEf, symObjAddr: 0x2F4, symBinAddr: 0x1000037B0, symSize: 0x90 }
  - { offset: 0xE32C, size: 0x8, addend: 0x0, symName: __ZNSt3__16vectorIP9ComponentNS_9allocatorIS2_EEE5beginB8ne180100Ev, symObjAddr: 0x384, symBinAddr: 0x100003840, symSize: 0x30 }
  - { offset: 0xE352, size: 0x8, addend: 0x0, symName: __ZNSt3__16vectorIP9ComponentNS_9allocatorIS2_EEE3endB8ne180100Ev, symObjAddr: 0x3B4, symBinAddr: 0x100003870, symSize: 0x30 }
  - { offset: 0xE378, size: 0x8, addend: 0x0, symName: __ZNKSt3__111__wrap_iterIPP9ComponentEdeB8ne180100Ev, symObjAddr: 0x418, symBinAddr: 0x1000038D4, symSize: 0x18 }
  - { offset: 0xE39C, size: 0x8, addend: 0x0, symName: __ZNSt3__111__wrap_iterIPP9ComponentEppB8ne180100Ev, symObjAddr: 0x430, symBinAddr: 0x1000038EC, symSize: 0x20 }
  - { offset: 0xE3C0, size: 0x8, addend: 0x0, symName: __ZN5Actor11UpdateActorEf, symObjAddr: 0x450, symBinAddr: 0x10000390C, symSize: 0x14 }
  - { offset: 0xE3F4, size: 0x8, addend: 0x0, symName: __ZN5Actor12AddComponentEP9Component, symObjAddr: 0x464, symBinAddr: 0x100003920, symSize: 0xD8 }
  - { offset: 0xE444, size: 0x8, addend: 0x0, symName: __ZNK9Component14GetUpdateOrderEv, symObjAddr: 0x53C, symBinAddr: 0x1000039F8, symSize: 0x18 }
  - { offset: 0xE468, size: 0x8, addend: 0x0, symName: __ZNSt3__16vectorIP9ComponentNS_9allocatorIS2_EEE6insertENS_11__wrap_iterIPKS2_EERS7_, symObjAddr: 0x554, symBinAddr: 0x100003A10, symSize: 0x1FC }
  - { offset: 0xE502, size: 0x8, addend: 0x0, symName: __ZNSt3__111__wrap_iterIPKP9ComponentEC1B8ne180100IPS2_Li0EEERKNS0_IT_EE, symObjAddr: 0x750, symBinAddr: 0x100003C0C, symSize: 0x34 }
  - { offset: 0xE547, size: 0x8, addend: 0x0, symName: __ZN5Actor15RemoveComponentEP9Component, symObjAddr: 0x784, symBinAddr: 0x100003C40, symSize: 0xBC }
  - { offset: 0xE589, size: 0x8, addend: 0x0, symName: __ZNSt3__16vectorIP9ComponentNS_9allocatorIS2_EEE5eraseB8ne180100ENS_11__wrap_iterIPKS2_EE, symObjAddr: 0x8B8, symBinAddr: 0x100003D74, symSize: 0x94 }
  - { offset: 0xE5DC, size: 0x8, addend: 0x0, symName: __ZN5Actor19ProcessInput_EventsER9SDL_Event, symObjAddr: 0x94C, symBinAddr: 0x100003E08, symSize: 0xA8 }
  - { offset: 0xE65E, size: 0x8, addend: 0x0, symName: __ZN5Actor23ProcessInput_ContinuousEPKh, symObjAddr: 0x9F4, symBinAddr: 0x100003EB0, symSize: 0x90 }
  - { offset: 0xE6E0, size: 0x8, addend: 0x0, symName: __ZN5Actor10ActorInputER9SDL_Event, symObjAddr: 0xA84, symBinAddr: 0x100003F40, symSize: 0x14 }
  - { offset: 0xE712, size: 0x8, addend: 0x0, symName: __ZN7Vector3C2Efff, symObjAddr: 0xA98, symBinAddr: 0x100003F54, symSize: 0x38 }
  - { offset: 0xE767, size: 0x8, addend: 0x0, symName: __ZNKSt3__111__wrap_iterIPP9ComponentE4baseB8ne180100Ev, symObjAddr: 0xB18, symBinAddr: 0x100003FD4, symSize: 0x18 }
  - { offset: 0xE78B, size: 0x8, addend: 0x0, symName: __ZNSt3__111__wrap_iterIPKP9ComponentEC2B8ne180100IPS2_Li0EEERKNS0_IT_EE, symObjAddr: 0xB30, symBinAddr: 0x100003FEC, symSize: 0x3C }
  - { offset: 0xE7D0, size: 0x8, addend: 0x0, symName: __ZNSt3__16vectorIP9ComponentNS_9allocatorIS2_EEEC2B8ne180100Ev, symObjAddr: 0xB6C, symBinAddr: 0x100004028, symSize: 0x4C }
  - { offset: 0xE802, size: 0x8, addend: 0x0, symName: __ZNSt3__117__compressed_pairIPP9ComponentNS_9allocatorIS2_EEEC1B8ne180100IDnNS_18__default_init_tagEEEOT_OT0_, symObjAddr: 0xBB8, symBinAddr: 0x100004074, symSize: 0x3C }
  - { offset: 0xE858, size: 0x8, addend: 0x0, symName: __ZNSt3__117__compressed_pairIPP9ComponentNS_9allocatorIS2_EEEC2B8ne180100IDnNS_18__default_init_tagEEEOT_OT0_, symObjAddr: 0xBF4, symBinAddr: 0x1000040B0, symSize: 0x40 }
  - { offset: 0xE8AE, size: 0x8, addend: 0x0, symName: __ZNSt3__122__compressed_pair_elemIPP9ComponentLi0ELb0EEC2B8ne180100IDnvEEOT_, symObjAddr: 0xC34, symBinAddr: 0x1000040F0, symSize: 0x1C }
  - { offset: 0xE8EE, size: 0x8, addend: 0x0, symName: __ZNSt3__122__compressed_pair_elemINS_9allocatorIP9ComponentEELi1ELb1EEC2B8ne180100ENS_18__default_init_tagE, symObjAddr: 0xC50, symBinAddr: 0x10000410C, symSize: 0x2C }
  - { offset: 0xE920, size: 0x8, addend: 0x0, symName: __ZNSt3__19allocatorIP9ComponentEC2B8ne180100Ev, symObjAddr: 0xC7C, symBinAddr: 0x100004138, symSize: 0x2C }
  - { offset: 0xE948, size: 0x8, addend: 0x0, symName: __ZNSt3__116__non_trivial_ifILb1ENS_9allocatorIP9ComponentEEEC2B8ne180100Ev, symObjAddr: 0xCA8, symBinAddr: 0x100004164, symSize: 0x14 }
  - { offset: 0xE970, size: 0x8, addend: 0x0, symName: __ZNSt3__16vectorIP9ComponentNS_9allocatorIS2_EEED2B8ne180100Ev, symObjAddr: 0xCBC, symBinAddr: 0x100004178, symSize: 0x44 }
  - { offset: 0xE998, size: 0x8, addend: 0x0, symName: __ZNSt3__16vectorIP9ComponentNS_9allocatorIS2_EEE16__destroy_vectorC1B8ne180100ERS5_, symObjAddr: 0xD00, symBinAddr: 0x1000041BC, symSize: 0x34 }
  - { offset: 0xE9CF, size: 0x8, addend: 0x0, symName: __ZNSt3__16vectorIP9ComponentNS_9allocatorIS2_EEE16__destroy_vectorclB8ne180100Ev, symObjAddr: 0xD34, symBinAddr: 0x1000041F0, symSize: 0x90 }
  - { offset: 0xE9F3, size: 0x8, addend: 0x0, symName: __ZNSt3__16vectorIP9ComponentNS_9allocatorIS2_EEE16__destroy_vectorC2B8ne180100ERS5_, symObjAddr: 0xDC4, symBinAddr: 0x100004280, symSize: 0x20 }
  - { offset: 0xEA2A, size: 0x8, addend: 0x0, symName: __ZNSt3__16vectorIP9ComponentNS_9allocatorIS2_EEE7__clearB8ne180100Ev, symObjAddr: 0xDE4, symBinAddr: 0x1000042A0, symSize: 0x28 }
  - { offset: 0xEA4E, size: 0x8, addend: 0x0, symName: __ZNKSt3__16vectorIP9ComponentNS_9allocatorIS2_EEE17__annotate_deleteB8ne180100Ev, symObjAddr: 0xE0C, symBinAddr: 0x1000042C8, symSize: 0x10 }
  - { offset: 0xEA72, size: 0x8, addend: 0x0, symName: __ZNSt3__116allocator_traitsINS_9allocatorIP9ComponentEEE10deallocateB8ne180100ERS4_PS3_m, symObjAddr: 0xE1C, symBinAddr: 0x1000042D8, symSize: 0x34 }
  - { offset: 0xEAB3, size: 0x8, addend: 0x0, symName: __ZNSt3__16vectorIP9ComponentNS_9allocatorIS2_EEE7__allocB8ne180100Ev, symObjAddr: 0xE50, symBinAddr: 0x10000430C, symSize: 0x28 }
  - { offset: 0xEAD7, size: 0x8, addend: 0x0, symName: __ZNKSt3__16vectorIP9ComponentNS_9allocatorIS2_EEE8capacityB8ne180100Ev, symObjAddr: 0xE78, symBinAddr: 0x100004334, symSize: 0x40 }
  - { offset: 0xEAFB, size: 0x8, addend: 0x0, symName: __ZNSt3__16vectorIP9ComponentNS_9allocatorIS2_EEE22__base_destruct_at_endB8ne180100EPS2_, symObjAddr: 0xEB8, symBinAddr: 0x100004374, symSize: 0x8C }
  - { offset: 0xEB3D, size: 0x8, addend: 0x0, symName: __ZNSt3__116allocator_traitsINS_9allocatorIP9ComponentEEE7destroyB8ne180100IS3_vEEvRS4_PT_, symObjAddr: 0xF44, symBinAddr: 0x100004400, symSize: 0x2C }
  - { offset: 0xEB79, size: 0x8, addend: 0x0, symName: __ZNSt3__19allocatorIP9ComponentE7destroyB8ne180100EPS2_, symObjAddr: 0xF84, symBinAddr: 0x100004440, symSize: 0x14 }
  - { offset: 0xEBAB, size: 0x8, addend: 0x0, symName: __ZNSt3__19allocatorIP9ComponentE10deallocateB8ne180100EPS2_m, symObjAddr: 0xF98, symBinAddr: 0x100004454, symSize: 0x40 }
  - { offset: 0xEBEB, size: 0x8, addend: 0x0, symName: __ZNSt3__117__compressed_pairIPP9ComponentNS_9allocatorIS2_EEE6secondB8ne180100Ev, symObjAddr: 0x1100, symBinAddr: 0x1000045BC, symSize: 0x24 }
  - { offset: 0xEC0F, size: 0x8, addend: 0x0, symName: __ZNSt3__122__compressed_pair_elemINS_9allocatorIP9ComponentEELi1ELb1EE5__getB8ne180100Ev, symObjAddr: 0x1124, symBinAddr: 0x1000045E0, symSize: 0x14 }
  - { offset: 0xEC33, size: 0x8, addend: 0x0, symName: __ZNKSt3__16vectorIP9ComponentNS_9allocatorIS2_EEE9__end_capB8ne180100Ev, symObjAddr: 0x1138, symBinAddr: 0x1000045F4, symSize: 0x28 }
  - { offset: 0xEC57, size: 0x8, addend: 0x0, symName: __ZNKSt3__117__compressed_pairIPP9ComponentNS_9allocatorIS2_EEE5firstB8ne180100Ev, symObjAddr: 0x1160, symBinAddr: 0x10000461C, symSize: 0x24 }
  - { offset: 0xEC7B, size: 0x8, addend: 0x0, symName: __ZNKSt3__122__compressed_pair_elemIPP9ComponentLi0ELb0EE5__getB8ne180100Ev, symObjAddr: 0x1184, symBinAddr: 0x100004640, symSize: 0x14 }
  - { offset: 0xEC9F, size: 0x8, addend: 0x0, symName: __ZNSt3__16vectorIP9ComponentNS_9allocatorIS2_EEE11__make_iterB8ne180100EPS2_, symObjAddr: 0x1198, symBinAddr: 0x100004654, symSize: 0x30 }
  - { offset: 0xECD2, size: 0x8, addend: 0x0, symName: __ZNSt3__111__wrap_iterIPP9ComponentEC1B8ne180100ES3_, symObjAddr: 0x11C8, symBinAddr: 0x100004684, symSize: 0x34 }
  - { offset: 0xED08, size: 0x8, addend: 0x0, symName: __ZNSt3__111__wrap_iterIPP9ComponentEC2B8ne180100ES3_, symObjAddr: 0x11FC, symBinAddr: 0x1000046B8, symSize: 0x20 }
  - { offset: 0xED3E, size: 0x8, addend: 0x0, symName: __ZNSt3__16vectorIP9ComponentNS_9allocatorIS2_EEE9__end_capB8ne180100Ev, symObjAddr: 0x1264, symBinAddr: 0x100004720, symSize: 0x28 }
  - { offset: 0xED62, size: 0x8, addend: 0x0, symName: __ZNSt3__16vectorIP9ComponentNS_9allocatorIS2_EEE22__construct_one_at_endB8ne180100IJRKS2_EEEvDpOT_, symObjAddr: 0x128C, symBinAddr: 0x100004748, symSize: 0x90 }
  - { offset: 0xEDAF, size: 0x8, addend: 0x0, symName: __ZNSt3__16vectorIP9ComponentNS_9allocatorIS2_EEE12__move_rangeEPS2_S6_S6_, symObjAddr: 0x131C, symBinAddr: 0x1000047D8, symSize: 0x12C }
  - { offset: 0xEE69, size: 0x8, addend: 0x0, symName: __ZNSt3__114pointer_traitsIPKP9ComponentE10pointer_toB8ne180100ERS3_, symObjAddr: 0x1448, symBinAddr: 0x100004904, symSize: 0x14 }
  - { offset: 0xEE8B, size: 0x8, addend: 0x0, symName: __ZNKSt3__16vectorIP9ComponentNS_9allocatorIS2_EEE11__recommendB8ne180100Em, symObjAddr: 0x145C, symBinAddr: 0x100004918, symSize: 0xB4 }
  - { offset: 0xEEDE, size: 0x8, addend: 0x0, symName: __ZNKSt3__16vectorIP9ComponentNS_9allocatorIS2_EEE4sizeB8ne180100Ev, symObjAddr: 0x1510, symBinAddr: 0x1000049CC, symSize: 0x28 }
  - { offset: 0xEF03, size: 0x8, addend: 0x0, symName: __ZNSt3__114__split_bufferIP9ComponentRNS_9allocatorIS2_EEEC1EmmS5_, symObjAddr: 0x1538, symBinAddr: 0x1000049F4, symSize: 0x44 }
  - { offset: 0xEF57, size: 0x8, addend: 0x0, symName: __ZNSt3__114__split_bufferIP9ComponentRNS_9allocatorIS2_EEE9push_backB8ne180100ERKS2_, symObjAddr: 0x157C, symBinAddr: 0x100004A38, symSize: 0x260 }
  - { offset: 0xEFCE, size: 0x8, addend: 0x0, symName: __ZNSt3__114__split_bufferIP9ComponentRNS_9allocatorIS2_EEED1Ev, symObjAddr: 0x1928, symBinAddr: 0x100004DE4, symSize: 0x2C }
  - { offset: 0xEFF8, size: 0x8, addend: 0x0, symName: __ZNKSt3__111__wrap_iterIPKP9ComponentE4baseB8ne180100Ev, symObjAddr: 0x1954, symBinAddr: 0x100004E10, symSize: 0x18 }
  - { offset: 0xF01C, size: 0x8, addend: 0x0, symName: __ZNSt3__117__compressed_pairIPP9ComponentNS_9allocatorIS2_EEE5firstB8ne180100Ev, symObjAddr: 0x196C, symBinAddr: 0x100004E28, symSize: 0x24 }
  - { offset: 0xF040, size: 0x8, addend: 0x0, symName: __ZNSt3__122__compressed_pair_elemIPP9ComponentLi0ELb0EE5__getB8ne180100Ev, symObjAddr: 0x1990, symBinAddr: 0x100004E4C, symSize: 0x14 }
  - { offset: 0xF07D, size: 0x8, addend: 0x0, symName: __ZNSt3__16vectorIP9ComponentNS_9allocatorIS2_EEE21_ConstructTransactionC1B8ne180100ERS5_m, symObjAddr: 0x19A4, symBinAddr: 0x100004E60, symSize: 0x3C }
  - { offset: 0xF0C3, size: 0x8, addend: 0x0, symName: __ZNSt3__116allocator_traitsINS_9allocatorIP9ComponentEEE9constructB8ne180100IS3_JRKS3_EvEEvRS4_PT_DpOT0_, symObjAddr: 0x19E0, symBinAddr: 0x100004E9C, symSize: 0x34 }
  - { offset: 0xF119, size: 0x8, addend: 0x0, symName: __ZNSt3__16vectorIP9ComponentNS_9allocatorIS2_EEE21_ConstructTransactionD1B8ne180100Ev, symObjAddr: 0x1A14, symBinAddr: 0x100004ED0, symSize: 0x2C }
  - { offset: 0xF141, size: 0x8, addend: 0x0, symName: __ZNSt3__16vectorIP9ComponentNS_9allocatorIS2_EEE21_ConstructTransactionC2B8ne180100ERS5_m, symObjAddr: 0x1A40, symBinAddr: 0x100004EFC, symSize: 0x44 }
  - { offset: 0xF187, size: 0x8, addend: 0x0, symName: __ZNSt3__19allocatorIP9ComponentE9constructB8ne180100IS2_JRKS2_EEEvPT_DpOT0_, symObjAddr: 0x1A84, symBinAddr: 0x100004F40, symSize: 0x28 }
  - { offset: 0xF1DB, size: 0x8, addend: 0x0, symName: __ZNSt3__16vectorIP9ComponentNS_9allocatorIS2_EEE21_ConstructTransactionD2B8ne180100Ev, symObjAddr: 0x1AAC, symBinAddr: 0x100004F68, symSize: 0x20 }
  - { offset: 0xF203, size: 0x8, addend: 0x0, symName: __ZNSt3__116allocator_traitsINS_9allocatorIP9ComponentEEE9constructB8ne180100IS3_JS3_EvEEvRS4_PT_DpOT0_, symObjAddr: 0x1ACC, symBinAddr: 0x100004F88, symSize: 0x34 }
  - { offset: 0xF259, size: 0x8, addend: 0x0, symName: __ZNSt3__19allocatorIP9ComponentE9constructB8ne180100IS2_JS2_EEEvPT_DpOT0_, symObjAddr: 0x1B40, symBinAddr: 0x100004FFC, symSize: 0x28 }
  - { offset: 0xF2D0, size: 0x8, addend: 0x0, symName: __ZNKSt3__123__move_backward_trivialclB8ne180100IP9ComponentS3_Li0EEENS_4pairIPT_PT0_EES6_S6_S8_, symObjAddr: 0x1D04, symBinAddr: 0x1000051C0, symSize: 0x48 }
  - { offset: 0xF336, size: 0x8, addend: 0x0, symName: __ZNSt3__14pairIPP9ComponentS3_EC1B8ne180100IRS3_S6_Li0EEEOT_OT0_, symObjAddr: 0x1F3C, symBinAddr: 0x1000053F8, symSize: 0x3C }
  - { offset: 0xF392, size: 0x8, addend: 0x0, symName: __ZNSt3__14pairIPP9ComponentS3_EC2B8ne180100IRS3_S6_Li0EEEOT_OT0_, symObjAddr: 0x1F78, symBinAddr: 0x100005434, symSize: 0x34 }
  - { offset: 0xF3EE, size: 0x8, addend: 0x0, symName: __ZNSt3__118__unwrap_iter_implIPP9ComponentLb1EE8__unwrapB8ne180100ES3_, symObjAddr: 0x1FAC, symBinAddr: 0x100005468, symSize: 0x24 }
  - { offset: 0xF415, size: 0x8, addend: 0x0, symName: __ZNSt3__14pairIPP9ComponentS3_EC1B8ne180100IS3_S3_Li0EEEOT_OT0_, symObjAddr: 0x1FD0, symBinAddr: 0x10000548C, symSize: 0x3C }
  - { offset: 0xF471, size: 0x8, addend: 0x0, symName: __ZNSt3__14pairIPP9ComponentS3_EC2B8ne180100IS3_S3_Li0EEEOT_OT0_, symObjAddr: 0x200C, symBinAddr: 0x1000054C8, symSize: 0x34 }
  - { offset: 0xF4CD, size: 0x8, addend: 0x0, symName: __ZNSt3__118__unwrap_iter_implIPP9ComponentLb1EE8__rewrapB8ne180100ES3_S3_, symObjAddr: 0x2040, symBinAddr: 0x1000054FC, symSize: 0x50 }
  - { offset: 0xF4FD, size: 0x8, addend: 0x0, symName: __ZNKSt3__16vectorIP9ComponentNS_9allocatorIS2_EEE8max_sizeEv, symObjAddr: 0x2090, symBinAddr: 0x10000554C, symSize: 0x60 }
  - { offset: 0xF523, size: 0x8, addend: 0x0, symName: __ZNKSt3__16vectorIP9ComponentNS_9allocatorIS2_EEE20__throw_length_errorB8ne180100Ev, symObjAddr: 0x20F0, symBinAddr: 0x1000055AC, symSize: 0x1C }
  - { offset: 0xF551, size: 0x8, addend: 0x0, symName: __ZNSt3__116allocator_traitsINS_9allocatorIP9ComponentEEE8max_sizeB8ne180100IS4_vEEmRKS4_, symObjAddr: 0x2164, symBinAddr: 0x100005620, symSize: 0x24 }
  - { offset: 0xF57E, size: 0x8, addend: 0x0, symName: __ZNKSt3__16vectorIP9ComponentNS_9allocatorIS2_EEE7__allocB8ne180100Ev, symObjAddr: 0x2188, symBinAddr: 0x100005644, symSize: 0x28 }
  - { offset: 0xF5A3, size: 0x8, addend: 0x0, symName: __ZNSt3__114numeric_limitsIlE3maxB8ne180100Ev, symObjAddr: 0x21B0, symBinAddr: 0x10000566C, symSize: 0x14 }
  - { offset: 0xF5C0, size: 0x8, addend: 0x0, symName: __ZNKSt3__16__lessIvvEclB8ne180100ImmEEbRKT_RKT0_, symObjAddr: 0x2218, symBinAddr: 0x1000056D4, symSize: 0x34 }
  - { offset: 0xF612, size: 0x8, addend: 0x0, symName: __ZNKSt3__19allocatorIP9ComponentE8max_sizeB8ne180100Ev, symObjAddr: 0x224C, symBinAddr: 0x100005708, symSize: 0x14 }
  - { offset: 0xF636, size: 0x8, addend: 0x0, symName: __ZNKSt3__117__compressed_pairIPP9ComponentNS_9allocatorIS2_EEE6secondB8ne180100Ev, symObjAddr: 0x2260, symBinAddr: 0x10000571C, symSize: 0x24 }
  - { offset: 0xF65A, size: 0x8, addend: 0x0, symName: __ZNKSt3__122__compressed_pair_elemINS_9allocatorIP9ComponentEELi1ELb1EE5__getB8ne180100Ev, symObjAddr: 0x2284, symBinAddr: 0x100005740, symSize: 0x14 }
  - { offset: 0xF67F, size: 0x8, addend: 0x0, symName: __ZNSt3__123__libcpp_numeric_limitsIlLb1EE3maxB8ne180100Ev, symObjAddr: 0x2298, symBinAddr: 0x100005754, symSize: 0x8 }
  - { offset: 0xF692, size: 0x8, addend: 0x0, symName: __ZNSt12length_errorC1B8ne180100EPKc, symObjAddr: 0x2304, symBinAddr: 0x1000057C0, symSize: 0x34 }
  - { offset: 0xF6C8, size: 0x8, addend: 0x0, symName: __ZNSt12length_errorC2B8ne180100EPKc, symObjAddr: 0x2338, symBinAddr: 0x1000057F4, symSize: 0x44 }
  - { offset: 0xF6FF, size: 0x8, addend: 0x0, symName: __ZNSt3__114__split_bufferIP9ComponentRNS_9allocatorIS2_EEEC2EmmS5_, symObjAddr: 0x23D0, symBinAddr: 0x10000588C, symSize: 0xD4 }
  - { offset: 0xF770, size: 0x8, addend: 0x0, symName: __ZNSt3__117__compressed_pairIPP9ComponentRNS_9allocatorIS2_EEEC1B8ne180100IDnS6_EEOT_OT0_, symObjAddr: 0x24A4, symBinAddr: 0x100005960, symSize: 0x3C }
  - { offset: 0xF7C6, size: 0x8, addend: 0x0, symName: __ZNSt3__114__split_bufferIP9ComponentRNS_9allocatorIS2_EEE7__allocB8ne180100Ev, symObjAddr: 0x2520, symBinAddr: 0x1000059DC, symSize: 0x28 }
  - { offset: 0xF7EA, size: 0x8, addend: 0x0, symName: __ZNSt3__114__split_bufferIP9ComponentRNS_9allocatorIS2_EEE9__end_capB8ne180100Ev, symObjAddr: 0x2548, symBinAddr: 0x100005A04, symSize: 0x28 }
  - { offset: 0xF80E, size: 0x8, addend: 0x0, symName: __ZNSt3__117__compressed_pairIPP9ComponentRNS_9allocatorIS2_EEEC2B8ne180100IDnS6_EEOT_OT0_, symObjAddr: 0x2570, symBinAddr: 0x100005A2C, symSize: 0x48 }
  - { offset: 0xF864, size: 0x8, addend: 0x0, symName: __ZNSt3__122__compressed_pair_elemIRNS_9allocatorIP9ComponentEELi1ELb0EEC2B8ne180100IS5_vEEOT_, symObjAddr: 0x25B8, symBinAddr: 0x100005A74, symSize: 0x20 }
  - { offset: 0xF8A4, size: 0x8, addend: 0x0, symName: __ZNSt3__19allocatorIP9ComponentE8allocateB8ne180100Em, symObjAddr: 0x25D8, symBinAddr: 0x100005A94, symSize: 0x58 }
  - { offset: 0xF8D6, size: 0x8, addend: 0x0, symName: __ZNSt3__117__compressed_pairIPP9ComponentRNS_9allocatorIS2_EEE6secondB8ne180100Ev, symObjAddr: 0x2714, symBinAddr: 0x100005BD0, symSize: 0x28 }
  - { offset: 0xF8FA, size: 0x8, addend: 0x0, symName: __ZNSt3__122__compressed_pair_elemIRNS_9allocatorIP9ComponentEELi1ELb0EE5__getB8ne180100Ev, symObjAddr: 0x273C, symBinAddr: 0x100005BF8, symSize: 0x18 }
  - { offset: 0xF91E, size: 0x8, addend: 0x0, symName: __ZNSt3__117__compressed_pairIPP9ComponentRNS_9allocatorIS2_EEE5firstB8ne180100Ev, symObjAddr: 0x2754, symBinAddr: 0x100005C10, symSize: 0x24 }
  - { offset: 0xF942, size: 0x8, addend: 0x0, symName: __ZNSt3__114__split_bufferIP9ComponentRNS_9allocatorIS2_EEE18__construct_at_endINS_13move_iteratorIPS2_EELi0EEEvT_SB_, symObjAddr: 0x27B8, symBinAddr: 0x100005C74, symSize: 0x60 }
  - { offset: 0xF993, size: 0x8, addend: 0x0, symName: __ZNSt3__113move_iteratorIPP9ComponentEC1B8ne180100ES3_, symObjAddr: 0x2818, symBinAddr: 0x100005CD4, symSize: 0x34 }
  - { offset: 0xF9D3, size: 0x8, addend: 0x0, symName: __ZNKSt3__114__move_trivialclB8ne180100IP9ComponentS3_Li0EEENS_4pairIPT_PT0_EES6_S6_S8_, symObjAddr: 0x29C4, symBinAddr: 0x100005E80, symSize: 0x48 }
  - { offset: 0xFA39, size: 0x8, addend: 0x0, symName: __ZNSt3__14pairIPP9ComponentS3_EC1B8ne180100IRS3_S3_Li0EEEOT_OT0_, symObjAddr: 0x2AC4, symBinAddr: 0x100005F80, symSize: 0x3C }
  - { offset: 0xFA95, size: 0x8, addend: 0x0, symName: __ZNSt3__14pairIPP9ComponentS3_EC2B8ne180100IRS3_S3_Li0EEEOT_OT0_, symObjAddr: 0x2B00, symBinAddr: 0x100005FBC, symSize: 0x34 }
  - { offset: 0xFAF1, size: 0x8, addend: 0x0, symName: __ZNSt3__114__split_bufferIP9ComponentRNS_9allocatorIS2_EEE28__construct_at_end_with_sizeINS_13move_iteratorIPS2_EEEEvT_m, symObjAddr: 0x2B34, symBinAddr: 0x100005FF0, symSize: 0xDC }
  - { offset: 0xFB55, size: 0x8, addend: 0x0, symName: __ZNSt3__114__split_bufferIP9ComponentRNS_9allocatorIS2_EEE21_ConstructTransactionC1B8ne180100EPPS2_m, symObjAddr: 0x2C4C, symBinAddr: 0x100006108, symSize: 0x3C }
  - { offset: 0xFB99, size: 0x8, addend: 0x0, symName: __ZNKSt3__113move_iteratorIPP9ComponentEdeB8ne180100Ev, symObjAddr: 0x2C88, symBinAddr: 0x100006144, symSize: 0x18 }
  - { offset: 0xFBBD, size: 0x8, addend: 0x0, symName: __ZNSt3__113move_iteratorIPP9ComponentEppB8ne180100Ev, symObjAddr: 0x2CA0, symBinAddr: 0x10000615C, symSize: 0x20 }
  - { offset: 0xFBE1, size: 0x8, addend: 0x0, symName: __ZNSt3__114__split_bufferIP9ComponentRNS_9allocatorIS2_EEE21_ConstructTransactionD1B8ne180100Ev, symObjAddr: 0x2CC0, symBinAddr: 0x10000617C, symSize: 0x2C }
  - { offset: 0xFC09, size: 0x8, addend: 0x0, symName: __ZNSt3__114__split_bufferIP9ComponentRNS_9allocatorIS2_EEE21_ConstructTransactionC2B8ne180100EPPS2_m, symObjAddr: 0x2CEC, symBinAddr: 0x1000061A8, symSize: 0x44 }
  - { offset: 0xFC4D, size: 0x8, addend: 0x0, symName: __ZNSt3__114__split_bufferIP9ComponentRNS_9allocatorIS2_EEE21_ConstructTransactionD2B8ne180100Ev, symObjAddr: 0x2D30, symBinAddr: 0x1000061EC, symSize: 0x20 }
  - { offset: 0xFC75, size: 0x8, addend: 0x0, symName: __ZNKSt3__113move_iteratorIPP9ComponentE4baseB8ne180100Ev, symObjAddr: 0x2DC8, symBinAddr: 0x100006284, symSize: 0x18 }
  - { offset: 0xFC99, size: 0x8, addend: 0x0, symName: __ZNSt3__113move_iteratorIPP9ComponentEC2B8ne180100ES3_, symObjAddr: 0x2DE0, symBinAddr: 0x10000629C, symSize: 0x20 }
  - { offset: 0xFCCF, size: 0x8, addend: 0x0, symName: __ZNSt3__116reverse_iteratorIPP9ComponentEC1B8ne180100ES3_, symObjAddr: 0x2E78, symBinAddr: 0x100006334, symSize: 0x34 }
  - { offset: 0xFD05, size: 0x8, addend: 0x0, symName: __ZNKSt3__116reverse_iteratorIPP9ComponentE4baseB8ne180100Ev, symObjAddr: 0x2EAC, symBinAddr: 0x100006368, symSize: 0x18 }
  - { offset: 0xFD29, size: 0x8, addend: 0x0, symName: __ZNKSt3__16vectorIP9ComponentNS_9allocatorIS2_EEE14__annotate_newB8ne180100Em, symObjAddr: 0x2EFC, symBinAddr: 0x1000063B8, symSize: 0x14 }
  - { offset: 0xFD7F, size: 0x8, addend: 0x0, symName: __ZNKSt3__111__move_loopINS_17_ClassicAlgPolicyEEclB8ne180100INS_16reverse_iteratorIPP9ComponentEES8_S8_EENS_4pairIT_T1_EESA_T0_SB_, symObjAddr: 0x3200, symBinAddr: 0x1000066BC, symSize: 0xA0 }
  - { offset: 0xFDED, size: 0x8, addend: 0x0, symName: __ZNSt3__18_IterOpsINS_17_ClassicAlgPolicyEE11__iter_moveB8ne180100IRNS_16reverse_iteratorIPP9ComponentEELi0EEEDTclsr3stdE4movedeclsr3stdE7declvalIRT_EEEEOSA_, symObjAddr: 0x3434, symBinAddr: 0x1000068F0, symSize: 0x28 }
  - { offset: 0xFE1E, size: 0x8, addend: 0x0, symName: __ZNKSt3__116reverse_iteratorIPP9ComponentEdeB8ne180100Ev, symObjAddr: 0x345C, symBinAddr: 0x100006918, symSize: 0x28 }
  - { offset: 0xFE50, size: 0x8, addend: 0x0, symName: __ZNSt3__116reverse_iteratorIPP9ComponentEppB8ne180100Ev, symObjAddr: 0x3484, symBinAddr: 0x100006940, symSize: 0x20 }
  - { offset: 0xFE74, size: 0x8, addend: 0x0, symName: __ZNSt3__18_IterOpsINS_17_ClassicAlgPolicyEE25__validate_iter_referenceB8ne180100IRNS_16reverse_iteratorIPP9ComponentEEEEvv, symObjAddr: 0x34A4, symBinAddr: 0x100006960, symSize: 0x4 }
  - { offset: 0xFE91, size: 0x8, addend: 0x0, symName: __ZNSt3__118__unwrap_iter_implINS_16reverse_iteratorIPP9ComponentEELb0EE8__unwrapB8ne180100ES5_, symObjAddr: 0x34A8, symBinAddr: 0x100006964, symSize: 0x24 }
  - { offset: 0xFEB8, size: 0x8, addend: 0x0, symName: __ZNSt3__14pairINS_16reverse_iteratorIPP9ComponentEES5_EC1B8ne180100IS5_S5_Li0EEEOT_OT0_, symObjAddr: 0x34CC, symBinAddr: 0x100006988, symSize: 0x3C }
  - { offset: 0xFF14, size: 0x8, addend: 0x0, symName: __ZNSt3__14pairINS_16reverse_iteratorIPP9ComponentEES5_EC2B8ne180100IS5_S5_Li0EEEOT_OT0_, symObjAddr: 0x3508, symBinAddr: 0x1000069C4, symSize: 0x34 }
  - { offset: 0xFF70, size: 0x8, addend: 0x0, symName: __ZNSt3__118__unwrap_iter_implINS_16reverse_iteratorIPP9ComponentEELb0EE8__rewrapB8ne180100ES5_S5_, symObjAddr: 0x353C, symBinAddr: 0x1000069F8, symSize: 0x2C }
  - { offset: 0xFF9C, size: 0x8, addend: 0x0, symName: __ZNSt3__116reverse_iteratorIPP9ComponentEC2B8ne180100ES3_, symObjAddr: 0x3568, symBinAddr: 0x100006A24, symSize: 0x28 }
  - { offset: 0xFFD3, size: 0x8, addend: 0x0, symName: __ZNSt3__114__split_bufferIP9ComponentRNS_9allocatorIS2_EEED2Ev, symObjAddr: 0x3590, symBinAddr: 0x100006A4C, symSize: 0x8C }
  - { offset: 0xFFFD, size: 0x8, addend: 0x0, symName: __ZNSt3__114__split_bufferIP9ComponentRNS_9allocatorIS2_EEE5clearB8ne180100Ev, symObjAddr: 0x361C, symBinAddr: 0x100006AD8, symSize: 0x28 }
  - { offset: 0x10021, size: 0x8, addend: 0x0, symName: __ZNKSt3__114__split_bufferIP9ComponentRNS_9allocatorIS2_EEE8capacityB8ne180100Ev, symObjAddr: 0x3644, symBinAddr: 0x100006B00, symSize: 0x40 }
  - { offset: 0x10045, size: 0x8, addend: 0x0, symName: __ZNSt3__114__split_bufferIP9ComponentRNS_9allocatorIS2_EEE17__destruct_at_endB8ne180100EPS2_, symObjAddr: 0x3684, symBinAddr: 0x100006B40, symSize: 0x2C }
  - { offset: 0x10077, size: 0x8, addend: 0x0, symName: __ZNSt3__114__split_bufferIP9ComponentRNS_9allocatorIS2_EEE17__destruct_at_endB8ne180100EPS2_NS_17integral_constantIbLb0EEE, symObjAddr: 0x36B0, symBinAddr: 0x100006B6C, symSize: 0x80 }
  - { offset: 0x100B5, size: 0x8, addend: 0x0, symName: __ZNKSt3__114__split_bufferIP9ComponentRNS_9allocatorIS2_EEE9__end_capB8ne180100Ev, symObjAddr: 0x3730, symBinAddr: 0x100006BEC, symSize: 0x28 }
  - { offset: 0x100D9, size: 0x8, addend: 0x0, symName: __ZNKSt3__117__compressed_pairIPP9ComponentRNS_9allocatorIS2_EEE5firstB8ne180100Ev, symObjAddr: 0x3758, symBinAddr: 0x100006C14, symSize: 0x24 }
  - { offset: 0x100FD, size: 0x8, addend: 0x0, symName: __ZNSt3__118__unwrap_iter_implINS_11__wrap_iterIPP9ComponentEELb1EE8__rewrapB8ne180100ES5_S4_, symObjAddr: 0x387C, symBinAddr: 0x100006D38, symSize: 0x5C }
  - { offset: 0x1012D, size: 0x8, addend: 0x0, symName: __ZNKSt3__111__wrap_iterIPP9ComponentEplB8ne180100El, symObjAddr: 0x38D8, symBinAddr: 0x100006D94, symSize: 0x3C }
  - { offset: 0x1016D, size: 0x8, addend: 0x0, symName: __ZNSt3__111__wrap_iterIPP9ComponentEpLB8ne180100El, symObjAddr: 0x3938, symBinAddr: 0x100006DF4, symSize: 0x28 }
  - { offset: 0x101A4, size: 0x8, addend: 0x0, symName: __ZNSt3__119__to_address_helperINS_11__wrap_iterIPP9ComponentEEvE6__callB8ne180100ERKS5_, symObjAddr: 0x3960, symBinAddr: 0x100006E1C, symSize: 0x30 }
  - { offset: 0x101C6, size: 0x8, addend: 0x0, symName: __ZNSt3__114pointer_traitsINS_11__wrap_iterIPP9ComponentEEE10to_addressB8ne180100ES5_, symObjAddr: 0x3990, symBinAddr: 0x100006E4C, symSize: 0x2C }
  - { offset: 0x101F2, size: 0x8, addend: 0x0, symName: __ZNKSt3__110__identityclB8ne180100IRP9ComponentEEOT_S6_, symObjAddr: 0x39E8, symBinAddr: 0x100006EA4, symSize: 0x18 }
  - { offset: 0x1022D, size: 0x8, addend: 0x0, symName: __ZNSt3__118__unwrap_iter_implINS_11__wrap_iterIPP9ComponentEELb1EE8__unwrapB8ne180100ES5_, symObjAddr: 0x3A00, symBinAddr: 0x100006EBC, symSize: 0x28 }
  - { offset: 0x1024F, size: 0x8, addend: 0x0, symName: __ZNKSt3__16vectorIP9ComponentNS_9allocatorIS2_EEE6cbeginB8ne180100Ev, symObjAddr: 0x3A70, symBinAddr: 0x100006F2C, symSize: 0x2C }
  - { offset: 0x10273, size: 0x8, addend: 0x0, symName: __ZNSt3__16vectorIP9ComponentNS_9allocatorIS2_EEE17__destruct_at_endB8ne180100EPS2_, symObjAddr: 0x3A9C, symBinAddr: 0x100006F58, symSize: 0x4C }
  - { offset: 0x102B5, size: 0x8, addend: 0x0, symName: __ZNKSt3__16vectorIP9ComponentNS_9allocatorIS2_EEE5beginB8ne180100Ev, symObjAddr: 0x3AE8, symBinAddr: 0x100006FA4, symSize: 0x30 }
  - { offset: 0x102DB, size: 0x8, addend: 0x0, symName: __ZNKSt3__16vectorIP9ComponentNS_9allocatorIS2_EEE11__make_iterB8ne180100EPKS2_, symObjAddr: 0x3B18, symBinAddr: 0x100006FD4, symSize: 0x30 }
  - { offset: 0x1030E, size: 0x8, addend: 0x0, symName: __ZNSt3__111__wrap_iterIPKP9ComponentEC1B8ne180100ES4_, symObjAddr: 0x3B48, symBinAddr: 0x100007004, symSize: 0x34 }
  - { offset: 0x10344, size: 0x8, addend: 0x0, symName: __ZNSt3__111__wrap_iterIPKP9ComponentEC2B8ne180100ES4_, symObjAddr: 0x3B7C, symBinAddr: 0x100007038, symSize: 0x20 }
  - { offset: 0x1037A, size: 0x8, addend: 0x0, symName: __ZNKSt3__16vectorIP9ComponentNS_9allocatorIS2_EEE17__annotate_shrinkB8ne180100Em, symObjAddr: 0x3B9C, symBinAddr: 0x100007058, symSize: 0x14 }
  - { offset: 0x127DD, size: 0x8, addend: 0x0, symName: __ZN5ColorL5BlackE, symObjAddr: 0x37380, symBinAddr: 0x10001C0DC, symSize: 0x0 }
  - { offset: 0x127F7, size: 0x8, addend: 0x0, symName: __ZN5ColorL5WhiteE, symObjAddr: 0x3738C, symBinAddr: 0x10001C0E8, symSize: 0x0 }
  - { offset: 0x12811, size: 0x8, addend: 0x0, symName: __ZN5ColorL3RedE, symObjAddr: 0x37398, symBinAddr: 0x10001C0F4, symSize: 0x0 }
  - { offset: 0x1282B, size: 0x8, addend: 0x0, symName: __ZN5ColorL5GreenE, symObjAddr: 0x373A4, symBinAddr: 0x10001C100, symSize: 0x0 }
  - { offset: 0x12845, size: 0x8, addend: 0x0, symName: __ZN5ColorL4BlueE, symObjAddr: 0x373B0, symBinAddr: 0x10001C10C, symSize: 0x0 }
  - { offset: 0x1285F, size: 0x8, addend: 0x0, symName: __ZN5ColorL6YellowE, symObjAddr: 0x373BC, symBinAddr: 0x10001C118, symSize: 0x0 }
  - { offset: 0x12879, size: 0x8, addend: 0x0, symName: __ZN5ColorL11LightYellowE, symObjAddr: 0x373C8, symBinAddr: 0x10001C124, symSize: 0x0 }
  - { offset: 0x12893, size: 0x8, addend: 0x0, symName: __ZN5ColorL9LightBlueE, symObjAddr: 0x373D4, symBinAddr: 0x10001C130, symSize: 0x0 }
  - { offset: 0x128AD, size: 0x8, addend: 0x0, symName: __ZN5ColorL9LightPinkE, symObjAddr: 0x373E0, symBinAddr: 0x10001C13C, symSize: 0x0 }
  - { offset: 0x128C7, size: 0x8, addend: 0x0, symName: __ZN5ColorL10LightGreenE, symObjAddr: 0x373EC, symBinAddr: 0x10001C148, symSize: 0x0 }
  - { offset: 0x191BD, size: 0x8, addend: 0x0, symName: __ZNSt3__118__constexpr_strlenB8ne180100EPKc, symObjAddr: 0x5C4, symBinAddr: 0x1000077A8, symSize: 0x24 }
  - { offset: 0x1AB73, size: 0x8, addend: 0x0, symName: __ZN9CharacterC2EP4Game, symObjAddr: 0x44, symBinAddr: 0x100007274, symSize: 0x1B8 }
  - { offset: 0x1ABBF, size: 0x8, addend: 0x0, symName: __ZN5Actor8SetWidthEi, symObjAddr: 0x1FC, symBinAddr: 0x10000742C, symSize: 0x20 }
  - { offset: 0x1ABF1, size: 0x8, addend: 0x0, symName: __ZN5Actor9SetHeightEi, symObjAddr: 0x21C, symBinAddr: 0x10000744C, symSize: 0x20 }
  - { offset: 0x1AC23, size: 0x8, addend: 0x0, symName: __ZN5Actor8SetScaleERKf, symObjAddr: 0x23C, symBinAddr: 0x10000746C, symSize: 0x24 }
  - { offset: 0x1AC5A, size: 0x8, addend: 0x0, symName: __ZNSt3__112basic_stringIcNS_11char_traitsIcEENS_9allocatorIcEEEC1B8ne180100ILi0EEEPKc, symObjAddr: 0x260, symBinAddr: 0x100007490, symSize: 0x34 }
  - { offset: 0x1AC97, size: 0x8, addend: 0x0, symName: __ZN9CharacterC1EP4Game, symObjAddr: 0x294, symBinAddr: 0x1000074C4, symSize: 0x34 }
  - { offset: 0x1ACCF, size: 0x8, addend: 0x0, symName: __ZN9CharacterD2Ev, symObjAddr: 0x2C8, symBinAddr: 0x1000074F8, symSize: 0x98 }
  - { offset: 0x1ACF9, size: 0x8, addend: 0x0, symName: __ZN9CharacterD1Ev, symObjAddr: 0x360, symBinAddr: 0x100007590, symSize: 0x2C }
  - { offset: 0x1AD23, size: 0x8, addend: 0x0, symName: __ZN9CharacterD0Ev, symObjAddr: 0x38C, symBinAddr: 0x1000075BC, symSize: 0x30 }
  - { offset: 0x1AD4D, size: 0x8, addend: 0x0, symName: __ZN9Character8setStateE14CharacterState, symObjAddr: 0x3BC, symBinAddr: 0x1000075EC, symSize: 0x20 }
  - { offset: 0x1AD81, size: 0x8, addend: 0x0, symName: __ZN9Character9getSpriteEv, symObjAddr: 0x3DC, symBinAddr: 0x10000760C, symSize: 0x18 }
  - { offset: 0x1ADA7, size: 0x8, addend: 0x0, symName: __ZNSt3__112basic_stringIcNS_11char_traitsIcEENS_9allocatorIcEEEC2B8ne180100ILi0EEEPKc, symObjAddr: 0x440, symBinAddr: 0x100007624, symSize: 0x58 }
  - { offset: 0x1ADE9, size: 0x8, addend: 0x0, symName: __ZNSt3__117__compressed_pairINS_12basic_stringIcNS_11char_traitsIcEENS_9allocatorIcEEE5__repES5_EC1B8ne180100INS_18__default_init_tagESA_EEOT_OT0_, symObjAddr: 0x498, symBinAddr: 0x10000767C, symSize: 0x3C }
  - { offset: 0x1AE3F, size: 0x8, addend: 0x0, symName: __ZNSt3__111char_traitsIcE6lengthB8ne180100EPKc, symObjAddr: 0x4D4, symBinAddr: 0x1000076B8, symSize: 0x34 }
  - { offset: 0x1AE61, size: 0x8, addend: 0x0, symName: __ZNSt3__117__compressed_pairINS_12basic_stringIcNS_11char_traitsIcEENS_9allocatorIcEEE5__repES5_EC2B8ne180100INS_18__default_init_tagESA_EEOT_OT0_, symObjAddr: 0x508, symBinAddr: 0x1000076EC, symSize: 0x3C }
  - { offset: 0x1AEB7, size: 0x8, addend: 0x0, symName: __ZNSt3__122__compressed_pair_elemINS_12basic_stringIcNS_11char_traitsIcEENS_9allocatorIcEEE5__repELi0ELb0EEC2B8ne180100ENS_18__default_init_tagE, symObjAddr: 0x544, symBinAddr: 0x100007728, symSize: 0x14 }
  - { offset: 0x1AEE9, size: 0x8, addend: 0x0, symName: __ZNSt3__122__compressed_pair_elemINS_9allocatorIcEELi1ELb1EEC2B8ne180100ENS_18__default_init_tagE, symObjAddr: 0x558, symBinAddr: 0x10000773C, symSize: 0x2C }
  - { offset: 0x1AF1B, size: 0x8, addend: 0x0, symName: __ZNSt3__19allocatorIcEC2B8ne180100Ev, symObjAddr: 0x584, symBinAddr: 0x100007768, symSize: 0x2C }
  - { offset: 0x1AF43, size: 0x8, addend: 0x0, symName: __ZNSt3__116__non_trivial_ifILb1ENS_9allocatorIcEEEC2B8ne180100Ev, symObjAddr: 0x5B0, symBinAddr: 0x100007794, symSize: 0x14 }
  - { offset: 0x1D024, size: 0x8, addend: 0x0, symName: __ZN5ColorL5BlackE, symObjAddr: 0x729A4, symBinAddr: 0x10001C154, symSize: 0x0 }
  - { offset: 0x1D03E, size: 0x8, addend: 0x0, symName: __ZN5ColorL5WhiteE, symObjAddr: 0x729B0, symBinAddr: 0x10001C160, symSize: 0x0 }
  - { offset: 0x1D058, size: 0x8, addend: 0x0, symName: __ZN5ColorL3RedE, symObjAddr: 0x729BC, symBinAddr: 0x10001C16C, symSize: 0x0 }
  - { offset: 0x1D072, size: 0x8, addend: 0x0, symName: __ZN5ColorL5GreenE, symObjAddr: 0x729C8, symBinAddr: 0x10001C178, symSize: 0x0 }
  - { offset: 0x1D08C, size: 0x8, addend: 0x0, symName: __ZN5ColorL4BlueE, symObjAddr: 0x729D4, symBinAddr: 0x10001C184, symSize: 0x0 }
  - { offset: 0x1D0A6, size: 0x8, addend: 0x0, symName: __ZN5ColorL6YellowE, symObjAddr: 0x729E0, symBinAddr: 0x10001C190, symSize: 0x0 }
  - { offset: 0x1D0C0, size: 0x8, addend: 0x0, symName: __ZN5ColorL11LightYellowE, symObjAddr: 0x729EC, symBinAddr: 0x10001C19C, symSize: 0x0 }
  - { offset: 0x1D0DA, size: 0x8, addend: 0x0, symName: __ZN5ColorL9LightBlueE, symObjAddr: 0x729F8, symBinAddr: 0x10001C1A8, symSize: 0x0 }
  - { offset: 0x1D0F4, size: 0x8, addend: 0x0, symName: __ZN5ColorL9LightPinkE, symObjAddr: 0x72A04, symBinAddr: 0x10001C1B4, symSize: 0x0 }
  - { offset: 0x1D10E, size: 0x8, addend: 0x0, symName: __ZN5ColorL10LightGreenE, symObjAddr: 0x72A10, symBinAddr: 0x10001C1C0, symSize: 0x0 }
  - { offset: 0x26261, size: 0x8, addend: 0x0, symName: __ZNSt3__1neB8ne180100IPP5ActorEEbRKNS_11__wrap_iterIT_EES8_, symObjAddr: 0x83C, symBinAddr: 0x1000081CC, symSize: 0x34 }
  - { offset: 0x262A4, size: 0x8, addend: 0x0, symName: __ZNSt3__1neB8ne180100IPP15SpriteComponentEEbRKNS_11__wrap_iterIT_EES8_, symObjAddr: 0x908, symBinAddr: 0x100008298, symSize: 0x34 }
  - { offset: 0x262E7, size: 0x8, addend: 0x0, symName: __ZNSt3__1neB8ne180100ERKNS_19__hash_map_iteratorINS_15__hash_iteratorIPNS_11__hash_nodeINS_17__hash_value_typeINS_12basic_stringIcNS_11char_traitsIcEENS_9allocatorIcEEEEP11SDL_TextureEEPvEEEEEESJ_, symObjAddr: 0xC50, symBinAddr: 0x1000085E0, symSize: 0x30 }
  - { offset: 0x26324, size: 0x8, addend: 0x0, symName: __ZNSt3__14findB8ne180100INS_11__wrap_iterIPP5ActorEES3_EET_S6_S6_RKT0_, symObjAddr: 0xF48, symBinAddr: 0x1000088D8, symSize: 0x78 }
  - { offset: 0x2638D, size: 0x8, addend: 0x0, symName: __ZNSt3__19iter_swapB8ne180100INS_11__wrap_iterIPP5ActorEES5_EEvT_T0_, symObjAddr: 0xFC0, symBinAddr: 0x100008950, symSize: 0x50 }
  - { offset: 0x263D5, size: 0x8, addend: 0x0, symName: __ZNSt3__14findB8ne180100INS_11__wrap_iterIPP15SpriteComponentEES3_EET_S6_S6_RKT0_, symObjAddr: 0x1418, symBinAddr: 0x100008DA8, symSize: 0x78 }
  - { offset: 0x2643D, size: 0x8, addend: 0x0, symName: __ZNSt3__1eqB8ne180100IPP5ActorEEbRKNS_11__wrap_iterIT_EES8_, symObjAddr: 0x155C, symBinAddr: 0x100008EB4, symSize: 0x48 }
  - { offset: 0x26480, size: 0x8, addend: 0x0, symName: __ZNSt3__1eqB8ne180100IPP15SpriteComponentEEbRKNS_11__wrap_iterIT_EES8_, symObjAddr: 0x15BC, symBinAddr: 0x100008F14, symSize: 0x48 }
  - { offset: 0x264C3, size: 0x8, addend: 0x0, symName: __ZNSt3__116__constrain_hashB8ne180100Emm, symObjAddr: 0x234C, symBinAddr: 0x100009C94, symSize: 0x98 }
  - { offset: 0x264FD, size: 0x8, addend: 0x0, symName: __ZNSt3__116__do_string_hashB8ne180100IPKcEEmT_S3_, symObjAddr: 0x25D8, symBinAddr: 0x100009F20, symSize: 0x3C }
  - { offset: 0x26543, size: 0x8, addend: 0x0, symName: __ZNSt3__110__loadwordB8ne180100ImEET_PKv, symObjAddr: 0x3050, symBinAddr: 0x10000A998, symSize: 0x20 }
  - { offset: 0x26586, size: 0x8, addend: 0x0, symName: __ZNSt3__14swapB8ne180100ImEENS_9enable_ifIXaasr21is_move_constructibleIT_EE5valuesr18is_move_assignableIS2_EE5valueEvE4typeERS2_S5_, symObjAddr: 0x320C, symBinAddr: 0x10000AB54, symSize: 0x3C }
  - { offset: 0x265D7, size: 0x8, addend: 0x0, symName: __ZNSt3__110__loadwordB8ne180100IjEET_PKv, symObjAddr: 0x329C, symBinAddr: 0x10000ABE4, symSize: 0x20 }
  - { offset: 0x2661A, size: 0x8, addend: 0x0, symName: __ZNSt3__112__to_addressB8ne180100IKcEEPT_S3_, symObjAddr: 0x3404, symBinAddr: 0x10000AD4C, symSize: 0x14 }
  - { offset: 0x26682, size: 0x8, addend: 0x0, symName: __ZNSt3__1eqB8ne180100INS_9allocatorIcEEEEbRKNS_12basic_stringIcNS_11char_traitsIcEET_EES9_, symObjAddr: 0x3724, symBinAddr: 0x10000B06C, symSize: 0x148 }
  - { offset: 0x266F5, size: 0x8, addend: 0x0, symName: __ZNSt3__17launderB8ne180100IKNS_4pairIKNS_12basic_stringIcNS_11char_traitsIcEENS_9allocatorIcEEEEP11SDL_TextureEEEEPT_SE_, symObjAddr: 0x38A0, symBinAddr: 0x10000B1E8, symSize: 0x24 }
  - { offset: 0x2672C, size: 0x8, addend: 0x0, symName: __ZNSt3__19__launderB8ne180100IKNS_4pairIKNS_12basic_stringIcNS_11char_traitsIcEENS_9allocatorIcEEEEP11SDL_TextureEEEEPT_SE_, symObjAddr: 0x38C4, symBinAddr: 0x10000B20C, symSize: 0x14 }
  - { offset: 0x26796, size: 0x8, addend: 0x0, symName: __ZNSt3__1neB8ne180100ERKNS_15__hash_iteratorIPNS_11__hash_nodeINS_17__hash_value_typeINS_12basic_stringIcNS_11char_traitsIcEENS_9allocatorIcEEEEP11SDL_TextureEEPvEEEESH_, symObjAddr: 0x392C, symBinAddr: 0x10000B274, symSize: 0x34 }
  - { offset: 0x267D3, size: 0x8, addend: 0x0, symName: __ZNSt3__1eqB8ne180100ERKNS_15__hash_iteratorIPNS_11__hash_nodeINS_17__hash_value_typeINS_12basic_stringIcNS_11char_traitsIcEENS_9allocatorIcEEEEP11SDL_TextureEEPvEEEESH_, symObjAddr: 0x3960, symBinAddr: 0x10000B2A8, symSize: 0x30 }
  - { offset: 0x26876, size: 0x8, addend: 0x0, symName: __ZNSt3__17launderB8ne180100INS_4pairIKNS_12basic_stringIcNS_11char_traitsIcEENS_9allocatorIcEEEEP11SDL_TextureEEEEPT_SD_, symObjAddr: 0x3A0C, symBinAddr: 0x10000B354, symSize: 0x24 }
  - { offset: 0x268AD, size: 0x8, addend: 0x0, symName: __ZNSt3__19__launderB8ne180100INS_4pairIKNS_12basic_stringIcNS_11char_traitsIcEENS_9allocatorIcEEEEP11SDL_TextureEEEEPT_SD_, symObjAddr: 0x3A30, symBinAddr: 0x10000B378, symSize: 0x14 }
  - { offset: 0x26902, size: 0x8, addend: 0x0, symName: __ZNSt3__114__construct_atB8ne180100INS_11__hash_nodeINS_17__hash_value_typeINS_12basic_stringIcNS_11char_traitsIcEENS_9allocatorIcEEEEP11SDL_TextureEEPvEEJDniEPSD_EEPT_SG_DpOT0_, symObjAddr: 0x3F48, symBinAddr: 0x10000B890, symSize: 0x40 }
  - { offset: 0x26968, size: 0x8, addend: 0x0, symName: __ZNSt3__116__is_hash_power2B8ne180100Em, symObjAddr: 0x4CA0, symBinAddr: 0x10000C2DC, symSize: 0x50 }
  - { offset: 0x26999, size: 0x8, addend: 0x0, symName: __ZNSt3__16__math4ceilB8ne180100Ef, symObjAddr: 0x4CF0, symBinAddr: 0x10000C32C, symSize: 0x18 }
  - { offset: 0x26A0A, size: 0x8, addend: 0x0, symName: __ZNSt3__116__next_hash_pow2B8ne180100Em, symObjAddr: 0x51A8, symBinAddr: 0x10000C7E4, symSize: 0x6C }
  - { offset: 0x26A36, size: 0x8, addend: 0x0, symName: __ZNSt3__112__libcpp_clzB8ne180100Em, symObjAddr: 0x5690, symBinAddr: 0x10000CBC4, symSize: 0x1C }
  - { offset: 0x26A63, size: 0x8, addend: 0x0, symName: __ZNSt3__112__destroy_atB8ne180100INS_11__hash_nodeINS_17__hash_value_typeINS_12basic_stringIcNS_11char_traitsIcEENS_9allocatorIcEEEEP11SDL_TextureEEPvEELi0EEEvPT_, symObjAddr: 0x5910, symBinAddr: 0x10000CDBC, symSize: 0x24 }
  - { offset: 0x26A9B, size: 0x8, addend: 0x0, symName: __ZNSt3__112__destroy_atB8ne180100INS_4pairIKNS_12basic_stringIcNS_11char_traitsIcEENS_9allocatorIcEEEEP11SDL_TextureEELi0EEEvPT_, symObjAddr: 0x5968, symBinAddr: 0x10000CE14, symSize: 0x24 }
  - { offset: 0x26AD2, size: 0x8, addend: 0x0, symName: __ZNSt3__112__to_addressB8ne180100IP5ActorEEPT_S4_, symObjAddr: 0x5D28, symBinAddr: 0x10000D1D4, symSize: 0x14 }
  - { offset: 0x26B07, size: 0x8, addend: 0x0, symName: __ZNSt3__119__allocate_at_leastB8ne180100INS_9allocatorIP5ActorEEEENS_19__allocation_resultINS_16allocator_traitsIT_E7pointerEEERS7_m, symObjAddr: 0x64C4, symBinAddr: 0x10000D7F8, symSize: 0x40 }
  - { offset: 0x26B4A, size: 0x8, addend: 0x0, symName: __ZNSt3__142__uninitialized_allocator_move_if_noexceptB8ne180100INS_9allocatorIP5ActorEENS_16reverse_iteratorIPS3_EES7_S3_vEET1_RT_T0_SB_S8_, symObjAddr: 0x6688, symBinAddr: 0x10000D9BC, symSize: 0x78 }
  - { offset: 0x26BC7, size: 0x8, addend: 0x0, symName: __ZNSt3__14swapB8ne180100IPP5ActorEENS_9enable_ifIXaasr21is_move_constructibleIT_EE5valuesr18is_move_assignableIS5_EE5valueEvE4typeERS5_S8_, symObjAddr: 0x674C, symBinAddr: 0x10000DA80, symSize: 0x3C }
  - { offset: 0x26C18, size: 0x8, addend: 0x0, symName: __ZNSt3__14moveB8ne180100INS_16reverse_iteratorIPP5ActorEES5_EET0_T_S7_S6_, symObjAddr: 0x679C, symBinAddr: 0x10000DAD0, symSize: 0x78 }
  - { offset: 0x26C72, size: 0x8, addend: 0x0, symName: __ZNSt3__16__moveB8ne180100INS_17_ClassicAlgPolicyENS_16reverse_iteratorIPP5ActorEES6_S6_EENS_4pairIT0_T2_EES8_T1_S9_, symObjAddr: 0x6814, symBinAddr: 0x10000DB48, symSize: 0x64 }
  - { offset: 0x26CDE, size: 0x8, addend: 0x0, symName: __ZNSt3__123__dispatch_copy_or_moveB8ne180100INS_17_ClassicAlgPolicyENS_11__move_loopIS1_EENS_14__move_trivialENS_16reverse_iteratorIPP5ActorEES9_S9_EENS_4pairIT2_T4_EESB_T3_SC_, symObjAddr: 0x6878, symBinAddr: 0x10000DBAC, symSize: 0x64 }
  - { offset: 0x26D5C, size: 0x8, addend: 0x0, symName: __ZNSt3__121__unwrap_and_dispatchB8ne180100INS_10__overloadINS_11__move_loopINS_17_ClassicAlgPolicyEEENS_14__move_trivialEEENS_16reverse_iteratorIPP5ActorEESB_SB_Li0EEENS_4pairIT0_T2_EESD_T1_SE_, symObjAddr: 0x68DC, symBinAddr: 0x10000DC10, symSize: 0x12C }
  - { offset: 0x26DEC, size: 0x8, addend: 0x0, symName: __ZNSt3__114__unwrap_rangeB8ne180100INS_16reverse_iteratorIPP5ActorEES5_EENS_4pairIT0_S7_EET_S9_, symObjAddr: 0x6A08, symBinAddr: 0x10000DD3C, symSize: 0x84 }
  - { offset: 0x26F9D, size: 0x8, addend: 0x0, symName: __ZNSt3__113__unwrap_iterB8ne180100INS_16reverse_iteratorIPP5ActorEENS_18__unwrap_iter_implIS5_Lb0EEELi0EEEDTclsrT0_8__unwrapclsr3stdE7declvalIT_EEEES9_, symObjAddr: 0x6B2C, symBinAddr: 0x10000DE60, symSize: 0x44 }
  - { offset: 0x26FE1, size: 0x8, addend: 0x0, symName: __ZNSt3__19make_pairB8ne180100INS_16reverse_iteratorIPP5ActorEES5_EENS_4pairINS_18__unwrap_ref_decayIT_E4typeENS7_IT0_E4typeEEEOS8_OSB_, symObjAddr: 0x6B70, symBinAddr: 0x10000DEA4, symSize: 0x38 }
  - { offset: 0x27030, size: 0x8, addend: 0x0, symName: __ZNSt3__114__rewrap_rangeB8ne180100INS_16reverse_iteratorIPP5ActorEES5_EET_S6_T0_, symObjAddr: 0x6BA8, symBinAddr: 0x10000DEDC, symSize: 0x5C }
  - { offset: 0x2707C, size: 0x8, addend: 0x0, symName: __ZNSt3__113__rewrap_iterB8ne180100INS_16reverse_iteratorIPP5ActorEES5_NS_18__unwrap_iter_implIS5_Lb0EEEEET_S8_T0_, symObjAddr: 0x6C04, symBinAddr: 0x10000DF38, symSize: 0x74 }
  - { offset: 0x270D1, size: 0x8, addend: 0x0, symName: __ZNSt3__1neB8ne180100IPP5ActorS3_EEbRKNS_16reverse_iteratorIT_EERKNS4_IT0_EE, symObjAddr: 0x6C78, symBinAddr: 0x10000DFAC, symSize: 0x48 }
  - { offset: 0x2720B, size: 0x8, addend: 0x0, symName: __ZNSt3__113__rewrap_iterB8ne180100INS_11__wrap_iterIPP5ActorEES4_NS_18__unwrap_iter_implIS5_Lb1EEEEET_S8_T0_, symObjAddr: 0x70BC, symBinAddr: 0x10000E3F0, symSize: 0x4C }
  - { offset: 0x27260, size: 0x8, addend: 0x0, symName: __ZNSt3__111__find_implB8ne180100IPP5ActorS3_S2_NS_10__identityEEET_S5_T0_RKT1_RT2_, symObjAddr: 0x7108, symBinAddr: 0x10000E43C, symSize: 0x88 }
  - { offset: 0x272DA, size: 0x8, addend: 0x0, symName: __ZNSt3__113__unwrap_iterB8ne180100INS_11__wrap_iterIPP5ActorEENS_18__unwrap_iter_implIS5_Lb1EEELi0EEEDTclsrT0_8__unwrapclsr3stdE7declvalIT_EEEES9_, symObjAddr: 0x7190, symBinAddr: 0x10000E4C4, symSize: 0x2C }
  - { offset: 0x27371, size: 0x8, addend: 0x0, symName: __ZNSt3__112__to_addressB8ne180100INS_11__wrap_iterIPP5ActorEEvEEu7__decayIDTclsr19__to_address_helperIT_EE6__callclsr3stdE7declvalIRKS6_EEEEES8_, symObjAddr: 0x7218, symBinAddr: 0x10000E54C, symSize: 0x24 }
  - { offset: 0x2744C, size: 0x8, addend: 0x0, symName: __ZNSt3__18__invokeB8ne180100IRNS_10__identityEJRP5ActorEEEDTclclsr3stdE7declvalIT_EEspclsr3stdE7declvalIT0_EEEEOS6_DpOS7_, symObjAddr: 0x7298, symBinAddr: 0x10000E5CC, symSize: 0x2C }
  - { offset: 0x274ED, size: 0x8, addend: 0x0, symName: __ZNSt3__14swapB8ne180100IP5ActorEENS_9enable_ifIXaasr21is_move_constructibleIT_EE5valuesr18is_move_assignableIS4_EE5valueEvE4typeERS4_S7_, symObjAddr: 0x7304, symBinAddr: 0x10000E638, symSize: 0x3C }
  - { offset: 0x2753E, size: 0x8, addend: 0x0, symName: __ZNSt3__1miB8ne180100IPKP15SpriteComponentPS2_EEDTmicldtfp_4baseEcldtfp0_4baseEERKNS_11__wrap_iterIT_EERKNS7_IT0_EE, symObjAddr: 0x742C, symBinAddr: 0x10000E760, symSize: 0x48 }
  - { offset: 0x275BD, size: 0x8, addend: 0x0, symName: __ZNSt3__112__to_addressB8ne180100IP15SpriteComponentEEPT_S4_, symObjAddr: 0x7C4C, symBinAddr: 0x10000EF80, symSize: 0x14 }
  - { offset: 0x275F2, size: 0x8, addend: 0x0, symName: __ZNSt3__113move_backwardB8ne180100IPP15SpriteComponentS3_EET0_T_S5_S4_, symObjAddr: 0x7D4C, symBinAddr: 0x10000F080, symSize: 0x40 }
  - { offset: 0x2764C, size: 0x8, addend: 0x0, symName: __ZNSt3__115__move_backwardB8ne180100INS_17_ClassicAlgPolicyEPP15SpriteComponentS4_S4_EENS_4pairIT0_T2_EES6_T1_S7_, symObjAddr: 0x7DB4, symBinAddr: 0x10000F0E8, symSize: 0x44 }
  - { offset: 0x276B8, size: 0x8, addend: 0x0, symName: __ZNSt3__123__dispatch_copy_or_moveB8ne180100INS_17_ClassicAlgPolicyENS_20__move_backward_loopIS1_EENS_23__move_backward_trivialEPP15SpriteComponentS7_S7_EENS_4pairIT2_T4_EES9_T3_SA_, symObjAddr: 0x7DF8, symBinAddr: 0x10000F12C, symSize: 0x44 }
  - { offset: 0x27736, size: 0x8, addend: 0x0, symName: __ZNSt3__121__unwrap_and_dispatchB8ne180100INS_10__overloadINS_20__move_backward_loopINS_17_ClassicAlgPolicyEEENS_23__move_backward_trivialEEEPP15SpriteComponentS9_S9_Li0EEENS_4pairIT0_T2_EESB_T1_SC_, symObjAddr: 0x7E3C, symBinAddr: 0x10000F170, symSize: 0xB4 }
  - { offset: 0x277C4, size: 0x8, addend: 0x0, symName: __ZNSt3__114__unwrap_rangeB8ne180100IPP15SpriteComponentS3_EENS_4pairIT0_S5_EET_S7_, symObjAddr: 0x7EF0, symBinAddr: 0x10000F224, symSize: 0x60 }
  - { offset: 0x27988, size: 0x8, addend: 0x0, symName: __ZNSt3__113__unwrap_iterB8ne180100IPP15SpriteComponentNS_18__unwrap_iter_implIS3_Lb1EEELi0EEEDTclsrT0_8__unwrapclsr3stdE7declvalIT_EEEES7_, symObjAddr: 0x7F98, symBinAddr: 0x10000F2CC, symSize: 0x24 }
  - { offset: 0x279CC, size: 0x8, addend: 0x0, symName: __ZNSt3__19make_pairB8ne180100IPP15SpriteComponentS3_EENS_4pairINS_18__unwrap_ref_decayIT_E4typeENS5_IT0_E4typeEEEOS6_OS9_, symObjAddr: 0x7FBC, symBinAddr: 0x10000F2F0, symSize: 0x38 }
  - { offset: 0x27A1B, size: 0x8, addend: 0x0, symName: __ZNSt3__114__rewrap_rangeB8ne180100IPP15SpriteComponentS3_EET_S4_T0_, symObjAddr: 0x7FF4, symBinAddr: 0x10000F328, symSize: 0x2C }
  - { offset: 0x27A67, size: 0x8, addend: 0x0, symName: __ZNSt3__113__rewrap_iterB8ne180100IPP15SpriteComponentS3_NS_18__unwrap_iter_implIS3_Lb1EEEEET_S6_T0_, symObjAddr: 0x8020, symBinAddr: 0x10000F354, symSize: 0x3C }
  - { offset: 0x27ABC, size: 0x8, addend: 0x0, symName: __ZNSt3__128__copy_backward_trivial_implB8ne180100IP15SpriteComponentS2_EENS_4pairIPT_PT0_EES5_S5_S7_, symObjAddr: 0x805C, symBinAddr: 0x10000F390, symSize: 0x90 }
  - { offset: 0x27B24, size: 0x8, addend: 0x0, symName: __ZNSt3__119__constexpr_memmoveB8ne180100IP15SpriteComponentS2_Li0EEEPT_S4_PT0_NS_15__element_countE, symObjAddr: 0x80EC, symBinAddr: 0x10000F420, symSize: 0x64 }
  - { offset: 0x27B92, size: 0x8, addend: 0x0, symName: __ZNSt3__19make_pairB8ne180100IRPP15SpriteComponentS4_EENS_4pairINS_18__unwrap_ref_decayIT_E4typeENS6_IT0_E4typeEEEOS7_OSA_, symObjAddr: 0x8150, symBinAddr: 0x10000F484, symSize: 0x38 }
  - { offset: 0x27C34, size: 0x8, addend: 0x0, symName: __ZNSt3__119__allocate_at_leastB8ne180100INS_9allocatorIP15SpriteComponentEEEENS_19__allocation_resultINS_16allocator_traitsIT_E7pointerEEERS7_m, symObjAddr: 0x85D8, symBinAddr: 0x10000F90C, symSize: 0x40 }
  - { offset: 0x27C77, size: 0x8, addend: 0x0, symName: __ZNSt3__14moveB8ne180100IPP15SpriteComponentS3_EET0_T_S5_S4_, symObjAddr: 0x878C, symBinAddr: 0x10000FAC0, symSize: 0x40 }
  - { offset: 0x27CD1, size: 0x8, addend: 0x0, symName: __ZNSt3__14swapB8ne180100IPP15SpriteComponentEENS_9enable_ifIXaasr21is_move_constructibleIT_EE5valuesr18is_move_assignableIS5_EE5valueEvE4typeERS5_S8_, symObjAddr: 0x8860, symBinAddr: 0x10000FB94, symSize: 0x3C }
  - { offset: 0x27D22, size: 0x8, addend: 0x0, symName: __ZNSt3__16__moveB8ne180100INS_17_ClassicAlgPolicyEPP15SpriteComponentS4_S4_EENS_4pairIT0_T2_EES6_T1_S7_, symObjAddr: 0x889C, symBinAddr: 0x10000FBD0, symSize: 0x44 }
  - { offset: 0x27D8E, size: 0x8, addend: 0x0, symName: __ZNSt3__123__dispatch_copy_or_moveB8ne180100INS_17_ClassicAlgPolicyENS_11__move_loopIS1_EENS_14__move_trivialEPP15SpriteComponentS7_S7_EENS_4pairIT2_T4_EES9_T3_SA_, symObjAddr: 0x88E0, symBinAddr: 0x10000FC14, symSize: 0x44 }
  - { offset: 0x27E0C, size: 0x8, addend: 0x0, symName: __ZNSt3__121__unwrap_and_dispatchB8ne180100INS_10__overloadINS_11__move_loopINS_17_ClassicAlgPolicyEEENS_14__move_trivialEEEPP15SpriteComponentS9_S9_Li0EEENS_4pairIT0_T2_EESB_T1_SC_, symObjAddr: 0x8924, symBinAddr: 0x10000FC58, symSize: 0xB4 }
  - { offset: 0x27EE0, size: 0x8, addend: 0x0, symName: __ZNSt3__119__copy_trivial_implB8ne180100IP15SpriteComponentS2_EENS_4pairIPT_PT0_EES5_S5_S7_, symObjAddr: 0x8A20, symBinAddr: 0x10000FD54, symSize: 0x80 }
  - { offset: 0x27F48, size: 0x8, addend: 0x0, symName: __ZNSt3__19make_pairB8ne180100IRPP15SpriteComponentS3_EENS_4pairINS_18__unwrap_ref_decayIT_E4typeENS6_IT0_E4typeEEEOS7_OSA_, symObjAddr: 0x8AA0, symBinAddr: 0x10000FDD4, symSize: 0x38 }
  - { offset: 0x27F97, size: 0x8, addend: 0x0, symName: __ZNSt3__18distanceB8ne180100INS_13move_iteratorIPP15SpriteComponentEEEENS_15iterator_traitsIT_E15difference_typeES7_S7_, symObjAddr: 0x8C24, symBinAddr: 0x10000FF58, symSize: 0x3C }
  - { offset: 0x27FDA, size: 0x8, addend: 0x0, symName: __ZNSt3__110__distanceB8ne180100INS_13move_iteratorIPP15SpriteComponentEEEENS_15iterator_traitsIT_E15difference_typeES7_S7_NS_26random_access_iterator_tagE, symObjAddr: 0x8D64, symBinAddr: 0x100010098, symSize: 0x30 }
  - { offset: 0x28027, size: 0x8, addend: 0x0, symName: __ZNSt3__1miB8ne180100IPP15SpriteComponentS3_EEDTmicldtfp_4baseEcldtfp0_4baseEERKNS_13move_iteratorIT_EERKNS5_IT0_EE, symObjAddr: 0x8D94, symBinAddr: 0x1000100C8, symSize: 0x48 }
  - { offset: 0x28076, size: 0x8, addend: 0x0, symName: __ZNSt3__142__uninitialized_allocator_move_if_noexceptB8ne180100INS_9allocatorIP15SpriteComponentEENS_16reverse_iteratorIPS3_EES7_S3_vEET1_RT_T0_SB_S8_, symObjAddr: 0x8E24, symBinAddr: 0x100010158, symSize: 0x78 }
  - { offset: 0x280F3, size: 0x8, addend: 0x0, symName: __ZNSt3__142__uninitialized_allocator_move_if_noexceptB8ne180100INS_9allocatorIP15SpriteComponentEEPS3_S5_S3_vEET1_RT_T0_S9_S6_, symObjAddr: 0x8EE8, symBinAddr: 0x10001021C, symSize: 0x38 }
  - { offset: 0x2816F, size: 0x8, addend: 0x0, symName: __ZNSt3__14moveB8ne180100INS_16reverse_iteratorIPP15SpriteComponentEES5_EET0_T_S7_S6_, symObjAddr: 0x8F34, symBinAddr: 0x100010268, symSize: 0x78 }
  - { offset: 0x281C9, size: 0x8, addend: 0x0, symName: __ZNSt3__16__moveB8ne180100INS_17_ClassicAlgPolicyENS_16reverse_iteratorIPP15SpriteComponentEES6_S6_EENS_4pairIT0_T2_EES8_T1_S9_, symObjAddr: 0x8FAC, symBinAddr: 0x1000102E0, symSize: 0x64 }
  - { offset: 0x28235, size: 0x8, addend: 0x0, symName: __ZNSt3__123__dispatch_copy_or_moveB8ne180100INS_17_ClassicAlgPolicyENS_11__move_loopIS1_EENS_14__move_trivialENS_16reverse_iteratorIPP15SpriteComponentEES9_S9_EENS_4pairIT2_T4_EESB_T3_SC_, symObjAddr: 0x9010, symBinAddr: 0x100010344, symSize: 0x64 }
  - { offset: 0x282B3, size: 0x8, addend: 0x0, symName: __ZNSt3__121__unwrap_and_dispatchB8ne180100INS_10__overloadINS_11__move_loopINS_17_ClassicAlgPolicyEEENS_14__move_trivialEEENS_16reverse_iteratorIPP15SpriteComponentEESB_SB_Li0EEENS_4pairIT0_T2_EESD_T1_SE_, symObjAddr: 0x9074, symBinAddr: 0x1000103A8, symSize: 0x12C }
  - { offset: 0x28343, size: 0x8, addend: 0x0, symName: __ZNSt3__114__unwrap_rangeB8ne180100INS_16reverse_iteratorIPP15SpriteComponentEES5_EENS_4pairIT0_S7_EET_S9_, symObjAddr: 0x91A0, symBinAddr: 0x1000104D4, symSize: 0x84 }
  - { offset: 0x28463, size: 0x8, addend: 0x0, symName: __ZNSt3__113__unwrap_iterB8ne180100INS_16reverse_iteratorIPP15SpriteComponentEENS_18__unwrap_iter_implIS5_Lb0EEELi0EEEDTclsrT0_8__unwrapclsr3stdE7declvalIT_EEEES9_, symObjAddr: 0x92C4, symBinAddr: 0x1000105F8, symSize: 0x44 }
  - { offset: 0x284A7, size: 0x8, addend: 0x0, symName: __ZNSt3__19make_pairB8ne180100INS_16reverse_iteratorIPP15SpriteComponentEES5_EENS_4pairINS_18__unwrap_ref_decayIT_E4typeENS7_IT0_E4typeEEEOS8_OSB_, symObjAddr: 0x9308, symBinAddr: 0x10001063C, symSize: 0x38 }
  - { offset: 0x284F6, size: 0x8, addend: 0x0, symName: __ZNSt3__114__rewrap_rangeB8ne180100INS_16reverse_iteratorIPP15SpriteComponentEES5_EET_S6_T0_, symObjAddr: 0x9340, symBinAddr: 0x100010674, symSize: 0x5C }
  - { offset: 0x28542, size: 0x8, addend: 0x0, symName: __ZNSt3__113__rewrap_iterB8ne180100INS_16reverse_iteratorIPP15SpriteComponentEES5_NS_18__unwrap_iter_implIS5_Lb0EEEEET_S8_T0_, symObjAddr: 0x939C, symBinAddr: 0x1000106D0, symSize: 0x74 }
  - { offset: 0x28597, size: 0x8, addend: 0x0, symName: __ZNSt3__1neB8ne180100IPP15SpriteComponentS3_EEbRKNS_16reverse_iteratorIT_EERKNS4_IT0_EE, symObjAddr: 0x9410, symBinAddr: 0x100010744, symSize: 0x48 }
  - { offset: 0x28636, size: 0x8, addend: 0x0, symName: __ZNSt3__113__rewrap_iterB8ne180100INS_11__wrap_iterIPP15SpriteComponentEES4_NS_18__unwrap_iter_implIS5_Lb1EEEEET_S8_T0_, symObjAddr: 0x9854, symBinAddr: 0x100010B88, symSize: 0x4C }
  - { offset: 0x2868B, size: 0x8, addend: 0x0, symName: __ZNSt3__111__find_implB8ne180100IPP15SpriteComponentS3_S2_NS_10__identityEEET_S5_T0_RKT1_RT2_, symObjAddr: 0x98A0, symBinAddr: 0x100010BD4, symSize: 0x88 }
  - { offset: 0x28705, size: 0x8, addend: 0x0, symName: __ZNSt3__113__unwrap_iterB8ne180100INS_11__wrap_iterIPP15SpriteComponentEENS_18__unwrap_iter_implIS5_Lb1EEELi0EEEDTclsrT0_8__unwrapclsr3stdE7declvalIT_EEEES9_, symObjAddr: 0x9928, symBinAddr: 0x100010C5C, symSize: 0x2C }
  - { offset: 0x2879C, size: 0x8, addend: 0x0, symName: __ZNSt3__112__to_addressB8ne180100INS_11__wrap_iterIPP15SpriteComponentEEvEEu7__decayIDTclsr19__to_address_helperIT_EE6__callclsr3stdE7declvalIRKS6_EEEEES8_, symObjAddr: 0x99EC, symBinAddr: 0x100010D20, symSize: 0x24 }
  - { offset: 0x28877, size: 0x8, addend: 0x0, symName: __ZNSt3__18__invokeB8ne180100IRNS_10__identityEJRP15SpriteComponentEEEDTclclsr3stdE7declvalIT_EEspclsr3stdE7declvalIT0_EEEEOS6_DpOS7_, symObjAddr: 0x9A94, symBinAddr: 0x100010DC8, symSize: 0x2C }
  - { offset: 0x288C8, size: 0x8, addend: 0x0, symName: __ZNSt3__1miB8ne180100IPKP15SpriteComponentS4_EEDTmicldtfp_4baseEcldtfp0_4baseEERKNS_11__wrap_iterIT_EERKNS6_IT0_EE, symObjAddr: 0x9B00, symBinAddr: 0x100010E34, symSize: 0x48 }
  - { offset: 0x2B331, size: 0x8, addend: 0x0, symName: __ZNSt3__16vectorIP5ActorNS_9allocatorIS2_EEE26__swap_out_circular_bufferERNS_14__split_bufferIS2_RS4_EE, symObjAddr: 0x5F4C, symBinAddr: 0x10000D3F8, symSize: 0x110 }
  - { offset: 0x2B39F, size: 0x8, addend: 0x0, symName: __ZNSt3__16vectorIP15SpriteComponentNS_9allocatorIS2_EEE26__swap_out_circular_bufferERNS_14__split_bufferIS2_RS4_EEPS2_, symObjAddr: 0x7A14, symBinAddr: 0x10000ED48, symSize: 0x14C }
  - { offset: 0x2B43A, size: 0x8, addend: 0x0, symName: __ZN4GameC2Ev, symObjAddr: 0x44, symBinAddr: 0x1000079D4, symSize: 0x70 }
  - { offset: 0x2B464, size: 0x8, addend: 0x0, symName: __ZNSt3__16vectorIP5ActorNS_9allocatorIS2_EEEC1B8ne180100Ev, symObjAddr: 0xB4, symBinAddr: 0x100007A44, symSize: 0x2C }
  - { offset: 0x2B48C, size: 0x8, addend: 0x0, symName: __ZNSt3__16vectorIP15SpriteComponentNS_9allocatorIS2_EEEC1B8ne180100Ev, symObjAddr: 0xE0, symBinAddr: 0x100007A70, symSize: 0x2C }
  - { offset: 0x2B4B4, size: 0x8, addend: 0x0, symName: __ZNSt3__113unordered_mapINS_12basic_stringIcNS_11char_traitsIcEENS_9allocatorIcEEEEP11SDL_TextureNS_4hashIS6_EENS_8equal_toIS6_EENS4_INS_4pairIKS6_S8_EEEEEC1B8ne180100Ev, symObjAddr: 0x10C, symBinAddr: 0x100007A9C, symSize: 0x2C }
  - { offset: 0x2B4DC, size: 0x8, addend: 0x0, symName: __ZN4GameC1Ev, symObjAddr: 0x138, symBinAddr: 0x100007AC8, symSize: 0x2C }
  - { offset: 0x2B506, size: 0x8, addend: 0x0, symName: __ZN4Game10InitializeEv, symObjAddr: 0x164, symBinAddr: 0x100007AF4, symSize: 0x1A4 }
  - { offset: 0x2B52C, size: 0x8, addend: 0x0, symName: __ZN4Game8LoadDataEv, symObjAddr: 0x308, symBinAddr: 0x100007C98, symSize: 0xC4 }
  - { offset: 0x2B56E, size: 0x8, addend: 0x0, symName: __ZN4Game7RunLoopEv, symObjAddr: 0x3CC, symBinAddr: 0x100007D5C, symSize: 0x54 }
  - { offset: 0x2B594, size: 0x8, addend: 0x0, symName: __ZN4Game12ProcessInputEv, symObjAddr: 0x420, symBinAddr: 0x100007DB0, symSize: 0x1C4 }
  - { offset: 0x2B676, size: 0x8, addend: 0x0, symName: __ZN4Game10UpdateGameEv, symObjAddr: 0x5E4, symBinAddr: 0x100007F74, symSize: 0x130 }
  - { offset: 0x2B6F8, size: 0x8, addend: 0x0, symName: __ZN4Game10RenderGameEv, symObjAddr: 0x714, symBinAddr: 0x1000080A4, symSize: 0xC8 }
  - { offset: 0x2B76C, size: 0x8, addend: 0x0, symName: __ZNSt3__16vectorIP5ActorNS_9allocatorIS2_EEE5beginB8ne180100Ev, symObjAddr: 0x7DC, symBinAddr: 0x10000816C, symSize: 0x30 }
  - { offset: 0x2B792, size: 0x8, addend: 0x0, symName: __ZNSt3__16vectorIP5ActorNS_9allocatorIS2_EEE3endB8ne180100Ev, symObjAddr: 0x80C, symBinAddr: 0x10000819C, symSize: 0x30 }
  - { offset: 0x2B7B8, size: 0x8, addend: 0x0, symName: __ZNKSt3__111__wrap_iterIPP5ActorEdeB8ne180100Ev, symObjAddr: 0x870, symBinAddr: 0x100008200, symSize: 0x18 }
  - { offset: 0x2B7DC, size: 0x8, addend: 0x0, symName: __ZNSt3__111__wrap_iterIPP5ActorEppB8ne180100Ev, symObjAddr: 0x888, symBinAddr: 0x100008218, symSize: 0x20 }
  - { offset: 0x2B800, size: 0x8, addend: 0x0, symName: __ZNSt3__16vectorIP15SpriteComponentNS_9allocatorIS2_EEE5beginB8ne180100Ev, symObjAddr: 0x8A8, symBinAddr: 0x100008238, symSize: 0x30 }
  - { offset: 0x2B826, size: 0x8, addend: 0x0, symName: __ZNSt3__16vectorIP15SpriteComponentNS_9allocatorIS2_EEE3endB8ne180100Ev, symObjAddr: 0x8D8, symBinAddr: 0x100008268, symSize: 0x30 }
  - { offset: 0x2B84C, size: 0x8, addend: 0x0, symName: __ZNKSt3__111__wrap_iterIPP15SpriteComponentEdeB8ne180100Ev, symObjAddr: 0x93C, symBinAddr: 0x1000082CC, symSize: 0x18 }
  - { offset: 0x2B870, size: 0x8, addend: 0x0, symName: __ZNSt3__111__wrap_iterIPP15SpriteComponentEppB8ne180100Ev, symObjAddr: 0x954, symBinAddr: 0x1000082E4, symSize: 0x20 }
  - { offset: 0x2BB8E, size: 0x8, addend: 0x0, symName: __ZN7Vector2C1Eff, symObjAddr: 0x974, symBinAddr: 0x100008304, symSize: 0x3C }
  - { offset: 0x2BBD2, size: 0x8, addend: 0x0, symName: __ZN5Actor4SetXEi, symObjAddr: 0x9B0, symBinAddr: 0x100008340, symSize: 0x20 }
  - { offset: 0x2BC04, size: 0x8, addend: 0x0, symName: __ZN5Actor4SetYEi, symObjAddr: 0x9D0, symBinAddr: 0x100008360, symSize: 0x20 }
  - { offset: 0x2BC36, size: 0x8, addend: 0x0, symName: __ZN4Game10UnloadDataEv, symObjAddr: 0x9F0, symBinAddr: 0x100008380, symSize: 0x78 }
  - { offset: 0x2BC5C, size: 0x8, addend: 0x0, symName: __ZNKSt3__16vectorIP5ActorNS_9allocatorIS2_EEE5emptyB8ne180100Ev, symObjAddr: 0xA68, symBinAddr: 0x1000083F8, symSize: 0x28 }
  - { offset: 0x2BC80, size: 0x8, addend: 0x0, symName: __ZNSt3__16vectorIP5ActorNS_9allocatorIS2_EEE4backB8ne180100Ev, symObjAddr: 0xA90, symBinAddr: 0x100008420, symSize: 0x1C }
  - { offset: 0x2BCA4, size: 0x8, addend: 0x0, symName: __ZN4Game10GetTextureERKNSt3__112basic_stringIcNS0_11char_traitsIcEENS0_9allocatorIcEEEE, symObjAddr: 0xAAC, symBinAddr: 0x10000843C, symSize: 0x164 }
  - { offset: 0x2BD10, size: 0x8, addend: 0x0, symName: __ZNSt3__113unordered_mapINS_12basic_stringIcNS_11char_traitsIcEENS_9allocatorIcEEEEP11SDL_TextureNS_4hashIS6_EENS_8equal_toIS6_EENS4_INS_4pairIKS6_S8_EEEEE4findB8ne180100ERSE_, symObjAddr: 0xC10, symBinAddr: 0x1000085A0, symSize: 0x40 }
  - { offset: 0x2BD43, size: 0x8, addend: 0x0, symName: __ZNSt3__113unordered_mapINS_12basic_stringIcNS_11char_traitsIcEENS_9allocatorIcEEEEP11SDL_TextureNS_4hashIS6_EENS_8equal_toIS6_EENS4_INS_4pairIKS6_S8_EEEEE3endB8ne180100Ev, symObjAddr: 0xC80, symBinAddr: 0x100008610, symSize: 0x38 }
  - { offset: 0x2BD67, size: 0x8, addend: 0x0, symName: __ZNKSt3__119__hash_map_iteratorINS_15__hash_iteratorIPNS_11__hash_nodeINS_17__hash_value_typeINS_12basic_stringIcNS_11char_traitsIcEENS_9allocatorIcEEEEP11SDL_TextureEEPvEEEEEptB8ne180100Ev, symObjAddr: 0xCB8, symBinAddr: 0x100008648, symSize: 0x2C }
  - { offset: 0x2BD8B, size: 0x8, addend: 0x0, symName: __ZNKSt3__112basic_stringIcNS_11char_traitsIcEENS_9allocatorIcEEE5c_strB8ne180100Ev, symObjAddr: 0xCE4, symBinAddr: 0x100008674, symSize: 0x24 }
  - { offset: 0x2BDB9, size: 0x8, addend: 0x0, symName: __ZNSt3__113unordered_mapINS_12basic_stringIcNS_11char_traitsIcEENS_9allocatorIcEEEEP11SDL_TextureNS_4hashIS6_EENS_8equal_toIS6_EENS4_INS_4pairIKS6_S8_EEEEE7emplaceB8ne180100IJPKcRS8_EEENSD_INS_19__hash_map_iteratorINS_15__hash_iteratorIPNS_11__hash_nodeINS_17__hash_value_typeIS6_S8_EEPvEEEEEEbEEDpOT_, symObjAddr: 0xD08, symBinAddr: 0x100008698, symSize: 0x54 }
  - { offset: 0x2BE0B, size: 0x8, addend: 0x0, symName: __ZN4Game8ShutdownEv, symObjAddr: 0xD5C, symBinAddr: 0x1000086EC, symSize: 0x48 }
  - { offset: 0x2BE31, size: 0x8, addend: 0x0, symName: __ZN4Game8AddActorEP5Actor, symObjAddr: 0xDA4, symBinAddr: 0x100008734, symSize: 0x34 }
  - { offset: 0x2BE65, size: 0x8, addend: 0x0, symName: __ZNSt3__16vectorIP5ActorNS_9allocatorIS2_EEE12emplace_backIJRS2_EEES7_DpOT_, symObjAddr: 0xDD8, symBinAddr: 0x100008768, symSize: 0x98 }
  - { offset: 0x2BEB4, size: 0x8, addend: 0x0, symName: __ZN4Game11RemoveActorEP5Actor, symObjAddr: 0xE70, symBinAddr: 0x100008800, symSize: 0xD8 }
  - { offset: 0x2BEF6, size: 0x8, addend: 0x0, symName: __ZNKSt3__111__wrap_iterIPP5ActorEmiB8ne180100El, symObjAddr: 0x1010, symBinAddr: 0x1000089A0, symSize: 0x3C }
  - { offset: 0x2BF28, size: 0x8, addend: 0x0, symName: __ZNSt3__16vectorIP5ActorNS_9allocatorIS2_EEE8pop_backEv, symObjAddr: 0x104C, symBinAddr: 0x1000089DC, symSize: 0x2C }
  - { offset: 0x2BF4E, size: 0x8, addend: 0x0, symName: __ZN4Game9AddSpriteEP15SpriteComponent, symObjAddr: 0x1078, symBinAddr: 0x100008A08, symSize: 0xD8 }
  - { offset: 0x2BF9E, size: 0x8, addend: 0x0, symName: __ZNK15SpriteComponent12GetDrawOrderEv, symObjAddr: 0x1150, symBinAddr: 0x100008AE0, symSize: 0x18 }
  - { offset: 0x2BFC2, size: 0x8, addend: 0x0, symName: __ZNSt3__16vectorIP15SpriteComponentNS_9allocatorIS2_EEE6insertENS_11__wrap_iterIPKS2_EERS7_, symObjAddr: 0x1168, symBinAddr: 0x100008AF8, symSize: 0x1FC }
  - { offset: 0x2C05C, size: 0x8, addend: 0x0, symName: __ZNSt3__111__wrap_iterIPKP15SpriteComponentEC1B8ne180100IPS2_Li0EEERKNS0_IT_EE, symObjAddr: 0x1364, symBinAddr: 0x100008CF4, symSize: 0x34 }
  - { offset: 0x2C0A1, size: 0x8, addend: 0x0, symName: __ZN4Game12RemoveSpriteEP15SpriteComponent, symObjAddr: 0x1398, symBinAddr: 0x100008D28, symSize: 0x80 }
  - { offset: 0x2C0E3, size: 0x8, addend: 0x0, symName: __ZNSt3__16vectorIP15SpriteComponentNS_9allocatorIS2_EEE5eraseB8ne180100ENS_11__wrap_iterIPKS2_EE, symObjAddr: 0x1490, symBinAddr: 0x100008E20, symSize: 0x94 }
  - { offset: 0x2C136, size: 0x8, addend: 0x0, symName: __ZNKSt3__111__wrap_iterIPP5ActorE4baseB8ne180100Ev, symObjAddr: 0x15A4, symBinAddr: 0x100008EFC, symSize: 0x18 }
  - { offset: 0x2C15A, size: 0x8, addend: 0x0, symName: __ZNKSt3__111__wrap_iterIPP15SpriteComponentE4baseB8ne180100Ev, symObjAddr: 0x1604, symBinAddr: 0x100008F5C, symSize: 0x18 }
  - { offset: 0x2C17E, size: 0x8, addend: 0x0, symName: __ZN7Vector2C2Eff, symObjAddr: 0x161C, symBinAddr: 0x100008F74, symSize: 0x2C }
  - { offset: 0x2C1C2, size: 0x8, addend: 0x0, symName: __ZNKSt3__111__wrap_iterIPP5ActorEplB8ne180100El, symObjAddr: 0x1648, symBinAddr: 0x100008FA0, symSize: 0x3C }
  - { offset: 0x2C202, size: 0x8, addend: 0x0, symName: __ZNSt3__111__wrap_iterIPP5ActorEpLB8ne180100El, symObjAddr: 0x1684, symBinAddr: 0x100008FDC, symSize: 0x28 }
  - { offset: 0x2C234, size: 0x8, addend: 0x0, symName: __ZNSt3__111__wrap_iterIPKP15SpriteComponentEC2B8ne180100IPS2_Li0EEERKNS0_IT_EE, symObjAddr: 0x16AC, symBinAddr: 0x100009004, symSize: 0x3C }
  - { offset: 0x2C279, size: 0x8, addend: 0x0, symName: __ZNSt3__16vectorIP5ActorNS_9allocatorIS2_EEEC2B8ne180100Ev, symObjAddr: 0x16E8, symBinAddr: 0x100009040, symSize: 0x4C }
  - { offset: 0x2C2AB, size: 0x8, addend: 0x0, symName: __ZNSt3__117__compressed_pairIPP5ActorNS_9allocatorIS2_EEEC1B8ne180100IDnNS_18__default_init_tagEEEOT_OT0_, symObjAddr: 0x1734, symBinAddr: 0x10000908C, symSize: 0x3C }
  - { offset: 0x2C301, size: 0x8, addend: 0x0, symName: __ZNSt3__117__compressed_pairIPP5ActorNS_9allocatorIS2_EEEC2B8ne180100IDnNS_18__default_init_tagEEEOT_OT0_, symObjAddr: 0x1780, symBinAddr: 0x1000090C8, symSize: 0x40 }
  - { offset: 0x2C357, size: 0x8, addend: 0x0, symName: __ZNSt3__122__compressed_pair_elemIPP5ActorLi0ELb0EEC2B8ne180100IDnvEEOT_, symObjAddr: 0x17C0, symBinAddr: 0x100009108, symSize: 0x1C }
  - { offset: 0x2C397, size: 0x8, addend: 0x0, symName: __ZNSt3__122__compressed_pair_elemINS_9allocatorIP5ActorEELi1ELb1EEC2B8ne180100ENS_18__default_init_tagE, symObjAddr: 0x17DC, symBinAddr: 0x100009124, symSize: 0x2C }
  - { offset: 0x2C3C9, size: 0x8, addend: 0x0, symName: __ZNSt3__19allocatorIP5ActorEC2B8ne180100Ev, symObjAddr: 0x1808, symBinAddr: 0x100009150, symSize: 0x2C }
  - { offset: 0x2C3F1, size: 0x8, addend: 0x0, symName: __ZNSt3__116__non_trivial_ifILb1ENS_9allocatorIP5ActorEEEC2B8ne180100Ev, symObjAddr: 0x1834, symBinAddr: 0x10000917C, symSize: 0x14 }
  - { offset: 0x2C419, size: 0x8, addend: 0x0, symName: __ZNSt3__16vectorIP15SpriteComponentNS_9allocatorIS2_EEEC2B8ne180100Ev, symObjAddr: 0x1848, symBinAddr: 0x100009190, symSize: 0x4C }
  - { offset: 0x2C441, size: 0x8, addend: 0x0, symName: __ZNSt3__117__compressed_pairIPP15SpriteComponentNS_9allocatorIS2_EEEC1B8ne180100IDnNS_18__default_init_tagEEEOT_OT0_, symObjAddr: 0x1894, symBinAddr: 0x1000091DC, symSize: 0x3C }
  - { offset: 0x2C497, size: 0x8, addend: 0x0, symName: __ZNSt3__117__compressed_pairIPP15SpriteComponentNS_9allocatorIS2_EEEC2B8ne180100IDnNS_18__default_init_tagEEEOT_OT0_, symObjAddr: 0x18D0, symBinAddr: 0x100009218, symSize: 0x40 }
  - { offset: 0x2C4ED, size: 0x8, addend: 0x0, symName: __ZNSt3__122__compressed_pair_elemIPP15SpriteComponentLi0ELb0EEC2B8ne180100IDnvEEOT_, symObjAddr: 0x1910, symBinAddr: 0x100009258, symSize: 0x1C }
  - { offset: 0x2C52D, size: 0x8, addend: 0x0, symName: __ZNSt3__122__compressed_pair_elemINS_9allocatorIP15SpriteComponentEELi1ELb1EEC2B8ne180100ENS_18__default_init_tagE, symObjAddr: 0x192C, symBinAddr: 0x100009274, symSize: 0x2C }
  - { offset: 0x2C55F, size: 0x8, addend: 0x0, symName: __ZNSt3__19allocatorIP15SpriteComponentEC2B8ne180100Ev, symObjAddr: 0x1958, symBinAddr: 0x1000092A0, symSize: 0x2C }
  - { offset: 0x2C587, size: 0x8, addend: 0x0, symName: __ZNSt3__116__non_trivial_ifILb1ENS_9allocatorIP15SpriteComponentEEEC2B8ne180100Ev, symObjAddr: 0x1984, symBinAddr: 0x1000092CC, symSize: 0x14 }
  - { offset: 0x2C5AF, size: 0x8, addend: 0x0, symName: __ZNSt3__113unordered_mapINS_12basic_stringIcNS_11char_traitsIcEENS_9allocatorIcEEEEP11SDL_TextureNS_4hashIS6_EENS_8equal_toIS6_EENS4_INS_4pairIKS6_S8_EEEEEC2B8ne180100Ev, symObjAddr: 0x1998, symBinAddr: 0x1000092E0, symSize: 0x2C }
  - { offset: 0x2C5D8, size: 0x8, addend: 0x0, symName: __ZNSt3__112__hash_tableINS_17__hash_value_typeINS_12basic_stringIcNS_11char_traitsIcEENS_9allocatorIcEEEEP11SDL_TextureEENS_22__unordered_map_hasherIS7_SA_NS_4hashIS7_EENS_8equal_toIS7_EELb1EEENS_21__unordered_map_equalIS7_SA_SF_SD_Lb1EEENS5_ISA_EEEC1Ev, symObjAddr: 0x19C4, symBinAddr: 0x10000930C, symSize: 0x2C }
  - { offset: 0x2C603, size: 0x8, addend: 0x0, symName: __ZNSt3__112__hash_tableINS_17__hash_value_typeINS_12basic_stringIcNS_11char_traitsIcEENS_9allocatorIcEEEEP11SDL_TextureEENS_22__unordered_map_hasherIS7_SA_NS_4hashIS7_EENS_8equal_toIS7_EELb1EEENS_21__unordered_map_equalIS7_SA_SF_SD_Lb1EEENS5_ISA_EEEC2Ev, symObjAddr: 0x19F0, symBinAddr: 0x100009338, symSize: 0x7C }
  - { offset: 0x2C62D, size: 0x8, addend: 0x0, symName: __ZNSt3__110unique_ptrIA_PNS_16__hash_node_baseIPNS_11__hash_nodeINS_17__hash_value_typeINS_12basic_stringIcNS_11char_traitsIcEENS_9allocatorIcEEEEP11SDL_TextureEEPvEEEENS_25__bucket_list_deallocatorINS7_ISH_EEEEEC1B8ne180100ILb1EvEEv, symObjAddr: 0x1A6C, symBinAddr: 0x1000093B4, symSize: 0x2C }
  - { offset: 0x2C660, size: 0x8, addend: 0x0, symName: __ZNSt3__117__compressed_pairINS_16__hash_node_baseIPNS_11__hash_nodeINS_17__hash_value_typeINS_12basic_stringIcNS_11char_traitsIcEENS_9allocatorIcEEEEP11SDL_TextureEEPvEEEENS7_ISE_EEEC1B8ne180100ILb1EvEEv, symObjAddr: 0x1A98, symBinAddr: 0x1000093E0, symSize: 0x2C }
  - { offset: 0x2C698, size: 0x8, addend: 0x0, symName: __ZNSt3__117__compressed_pairImNS_22__unordered_map_hasherINS_12basic_stringIcNS_11char_traitsIcEENS_9allocatorIcEEEENS_17__hash_value_typeIS7_P11SDL_TextureEENS_4hashIS7_EENS_8equal_toIS7_EELb1EEEEC1B8ne180100IiNS_18__default_init_tagEEEOT_OT0_, symObjAddr: 0x1AC4, symBinAddr: 0x10000940C, symSize: 0x3C }
  - { offset: 0x2C6F3, size: 0x8, addend: 0x0, symName: __ZNSt3__117__compressed_pairIfNS_21__unordered_map_equalINS_12basic_stringIcNS_11char_traitsIcEENS_9allocatorIcEEEENS_17__hash_value_typeIS7_P11SDL_TextureEENS_8equal_toIS7_EENS_4hashIS7_EELb1EEEEC1B8ne180100IfNS_18__default_init_tagEEEOT_OT0_, symObjAddr: 0x1B00, symBinAddr: 0x100009448, symSize: 0x3C }
  - { offset: 0x2C749, size: 0x8, addend: 0x0, symName: __ZNSt3__110unique_ptrIA_PNS_16__hash_node_baseIPNS_11__hash_nodeINS_17__hash_value_typeINS_12basic_stringIcNS_11char_traitsIcEENS_9allocatorIcEEEEP11SDL_TextureEEPvEEEENS_25__bucket_list_deallocatorINS7_ISH_EEEEEC2B8ne180100ILb1EvEEv, symObjAddr: 0x1B3C, symBinAddr: 0x100009484, symSize: 0x3C }
  - { offset: 0x2C781, size: 0x8, addend: 0x0, symName: __ZNSt3__117__compressed_pairIPPNS_16__hash_node_baseIPNS_11__hash_nodeINS_17__hash_value_typeINS_12basic_stringIcNS_11char_traitsIcEENS_9allocatorIcEEEEP11SDL_TextureEEPvEEEENS_25__bucket_list_deallocatorINS7_ISH_EEEEEC1B8ne180100INS_16__value_init_tagESO_EEOT_OT0_, symObjAddr: 0x1B78, symBinAddr: 0x1000094C0, symSize: 0x3C }
  - { offset: 0x2C7D7, size: 0x8, addend: 0x0, symName: __ZNSt3__117__compressed_pairIPPNS_16__hash_node_baseIPNS_11__hash_nodeINS_17__hash_value_typeINS_12basic_stringIcNS_11char_traitsIcEENS_9allocatorIcEEEEP11SDL_TextureEEPvEEEENS_25__bucket_list_deallocatorINS7_ISH_EEEEEC2B8ne180100INS_16__value_init_tagESO_EEOT_OT0_, symObjAddr: 0x1BB4, symBinAddr: 0x1000094FC, symSize: 0x40 }
  - { offset: 0x2C82D, size: 0x8, addend: 0x0, symName: __ZNSt3__122__compressed_pair_elemIPPNS_16__hash_node_baseIPNS_11__hash_nodeINS_17__hash_value_typeINS_12basic_stringIcNS_11char_traitsIcEENS_9allocatorIcEEEEP11SDL_TextureEEPvEEEELi0ELb0EEC2B8ne180100ENS_16__value_init_tagE, symObjAddr: 0x1BF4, symBinAddr: 0x10000953C, symSize: 0x18 }
  - { offset: 0x2C85F, size: 0x8, addend: 0x0, symName: __ZNSt3__122__compressed_pair_elemINS_25__bucket_list_deallocatorINS_9allocatorIPNS_16__hash_node_baseIPNS_11__hash_nodeINS_17__hash_value_typeINS_12basic_stringIcNS_11char_traitsIcEENS2_IcEEEEP11SDL_TextureEEPvEEEEEEEELi1ELb0EEC2B8ne180100ENS_16__value_init_tagE, symObjAddr: 0x1C0C, symBinAddr: 0x100009554, symSize: 0x2C }
  - { offset: 0x2C891, size: 0x8, addend: 0x0, symName: __ZNSt3__125__bucket_list_deallocatorINS_9allocatorIPNS_16__hash_node_baseIPNS_11__hash_nodeINS_17__hash_value_typeINS_12basic_stringIcNS_11char_traitsIcEENS1_IcEEEEP11SDL_TextureEEPvEEEEEEEC1B8ne180100Ev, symObjAddr: 0x1C38, symBinAddr: 0x100009580, symSize: 0x2C }
  - { offset: 0x2C8B9, size: 0x8, addend: 0x0, symName: __ZNSt3__125__bucket_list_deallocatorINS_9allocatorIPNS_16__hash_node_baseIPNS_11__hash_nodeINS_17__hash_value_typeINS_12basic_stringIcNS_11char_traitsIcEENS1_IcEEEEP11SDL_TextureEEPvEEEEEEEC2B8ne180100Ev, symObjAddr: 0x1C64, symBinAddr: 0x1000095AC, symSize: 0x40 }
  - { offset: 0x2C8E1, size: 0x8, addend: 0x0, symName: __ZNSt3__117__compressed_pairImNS_9allocatorIPNS_16__hash_node_baseIPNS_11__hash_nodeINS_17__hash_value_typeINS_12basic_stringIcNS_11char_traitsIcEENS1_IcEEEEP11SDL_TextureEEPvEEEEEEEC1B8ne180100IiNS_18__default_init_tagEEEOT_OT0_, symObjAddr: 0x1CA4, symBinAddr: 0x1000095EC, symSize: 0x3C }
  - { offset: 0x2C937, size: 0x8, addend: 0x0, symName: __ZNSt3__117__compressed_pairImNS_9allocatorIPNS_16__hash_node_baseIPNS_11__hash_nodeINS_17__hash_value_typeINS_12basic_stringIcNS_11char_traitsIcEENS1_IcEEEEP11SDL_TextureEEPvEEEEEEEC2B8ne180100IiNS_18__default_init_tagEEEOT_OT0_, symObjAddr: 0x1CE0, symBinAddr: 0x100009628, symSize: 0x40 }
  - { offset: 0x2C98D, size: 0x8, addend: 0x0, symName: __ZNSt3__122__compressed_pair_elemImLi0ELb0EEC2B8ne180100IivEEOT_, symObjAddr: 0x1D20, symBinAddr: 0x100009668, symSize: 0x24 }
  - { offset: 0x2C9CD, size: 0x8, addend: 0x0, symName: __ZNSt3__122__compressed_pair_elemINS_9allocatorIPNS_16__hash_node_baseIPNS_11__hash_nodeINS_17__hash_value_typeINS_12basic_stringIcNS_11char_traitsIcEENS1_IcEEEEP11SDL_TextureEEPvEEEEEELi1ELb1EEC2B8ne180100ENS_18__default_init_tagE, symObjAddr: 0x1D44, symBinAddr: 0x10000968C, symSize: 0x2C }
  - { offset: 0x2C9FF, size: 0x8, addend: 0x0, symName: __ZNSt3__19allocatorIPNS_16__hash_node_baseIPNS_11__hash_nodeINS_17__hash_value_typeINS_12basic_stringIcNS_11char_traitsIcEENS0_IcEEEEP11SDL_TextureEEPvEEEEEC2B8ne180100Ev, symObjAddr: 0x1D70, symBinAddr: 0x1000096B8, symSize: 0x2C }
  - { offset: 0x2CA27, size: 0x8, addend: 0x0, symName: __ZNSt3__116__non_trivial_ifILb1ENS_9allocatorIPNS_16__hash_node_baseIPNS_11__hash_nodeINS_17__hash_value_typeINS_12basic_stringIcNS_11char_traitsIcEENS1_IcEEEEP11SDL_TextureEEPvEEEEEEEC2B8ne180100Ev, symObjAddr: 0x1D9C, symBinAddr: 0x1000096E4, symSize: 0x14 }
  - { offset: 0x2CA4F, size: 0x8, addend: 0x0, symName: __ZNSt3__117__compressed_pairINS_16__hash_node_baseIPNS_11__hash_nodeINS_17__hash_value_typeINS_12basic_stringIcNS_11char_traitsIcEENS_9allocatorIcEEEEP11SDL_TextureEEPvEEEENS7_ISE_EEEC2B8ne180100ILb1EvEEv, symObjAddr: 0x1DB0, symBinAddr: 0x1000096F8, symSize: 0x34 }
  - { offset: 0x2CA82, size: 0x8, addend: 0x0, symName: __ZNSt3__122__compressed_pair_elemINS_16__hash_node_baseIPNS_11__hash_nodeINS_17__hash_value_typeINS_12basic_stringIcNS_11char_traitsIcEENS_9allocatorIcEEEEP11SDL_TextureEEPvEEEELi0ELb0EEC2B8ne180100ENS_16__value_init_tagE, symObjAddr: 0x1DE4, symBinAddr: 0x10000972C, symSize: 0x2C }
  - { offset: 0x2CAB4, size: 0x8, addend: 0x0, symName: __ZNSt3__122__compressed_pair_elemINS_9allocatorINS_11__hash_nodeINS_17__hash_value_typeINS_12basic_stringIcNS_11char_traitsIcEENS1_IcEEEEP11SDL_TextureEEPvEEEELi1ELb1EEC2B8ne180100ENS_16__value_init_tagE, symObjAddr: 0x1E10, symBinAddr: 0x100009758, symSize: 0x2C }
  - { offset: 0x2CAE6, size: 0x8, addend: 0x0, symName: __ZNSt3__116__hash_node_baseIPNS_11__hash_nodeINS_17__hash_value_typeINS_12basic_stringIcNS_11char_traitsIcEENS_9allocatorIcEEEEP11SDL_TextureEEPvEEEC1B8ne180100Ev, symObjAddr: 0x1E3C, symBinAddr: 0x100009784, symSize: 0x2C }
  - { offset: 0x2CB0E, size: 0x8, addend: 0x0, symName: __ZNSt3__116__hash_node_baseIPNS_11__hash_nodeINS_17__hash_value_typeINS_12basic_stringIcNS_11char_traitsIcEENS_9allocatorIcEEEEP11SDL_TextureEEPvEEEC2B8ne180100Ev, symObjAddr: 0x1E68, symBinAddr: 0x1000097B0, symSize: 0x18 }
  - { offset: 0x2CB36, size: 0x8, addend: 0x0, symName: __ZNSt3__19allocatorINS_11__hash_nodeINS_17__hash_value_typeINS_12basic_stringIcNS_11char_traitsIcEENS0_IcEEEEP11SDL_TextureEEPvEEEC2B8ne180100Ev, symObjAddr: 0x1E80, symBinAddr: 0x1000097C8, symSize: 0x2C }
  - { offset: 0x2CB5E, size: 0x8, addend: 0x0, symName: __ZNSt3__116__non_trivial_ifILb1ENS_9allocatorINS_11__hash_nodeINS_17__hash_value_typeINS_12basic_stringIcNS_11char_traitsIcEENS1_IcEEEEP11SDL_TextureEEPvEEEEEC2B8ne180100Ev, symObjAddr: 0x1EAC, symBinAddr: 0x1000097F4, symSize: 0x14 }
  - { offset: 0x2CB86, size: 0x8, addend: 0x0, symName: __ZNSt3__117__compressed_pairImNS_22__unordered_map_hasherINS_12basic_stringIcNS_11char_traitsIcEENS_9allocatorIcEEEENS_17__hash_value_typeIS7_P11SDL_TextureEENS_4hashIS7_EENS_8equal_toIS7_EELb1EEEEC2B8ne180100IiNS_18__default_init_tagEEEOT_OT0_, symObjAddr: 0x1EC0, symBinAddr: 0x100009808, symSize: 0x40 }
  - { offset: 0x2CBDC, size: 0x8, addend: 0x0, symName: __ZNSt3__122__compressed_pair_elemINS_22__unordered_map_hasherINS_12basic_stringIcNS_11char_traitsIcEENS_9allocatorIcEEEENS_17__hash_value_typeIS7_P11SDL_TextureEENS_4hashIS7_EENS_8equal_toIS7_EELb1EEELi1ELb1EEC2B8ne180100ENS_18__default_init_tagE, symObjAddr: 0x1F00, symBinAddr: 0x100009848, symSize: 0x2C }
  - { offset: 0x2CC0E, size: 0x8, addend: 0x0, symName: __ZNSt3__122__unordered_map_hasherINS_12basic_stringIcNS_11char_traitsIcEENS_9allocatorIcEEEENS_17__hash_value_typeIS6_P11SDL_TextureEENS_4hashIS6_EENS_8equal_toIS6_EELb1EEC2B8ne180100Ev, symObjAddr: 0x1F2C, symBinAddr: 0x100009874, symSize: 0x14 }
  - { offset: 0x2CC36, size: 0x8, addend: 0x0, symName: __ZNSt3__117__compressed_pairIfNS_21__unordered_map_equalINS_12basic_stringIcNS_11char_traitsIcEENS_9allocatorIcEEEENS_17__hash_value_typeIS7_P11SDL_TextureEENS_8equal_toIS7_EENS_4hashIS7_EELb1EEEEC2B8ne180100IfNS_18__default_init_tagEEEOT_OT0_, symObjAddr: 0x1F40, symBinAddr: 0x100009888, symSize: 0x40 }
  - { offset: 0x2CC8C, size: 0x8, addend: 0x0, symName: __ZNSt3__122__compressed_pair_elemIfLi0ELb0EEC2B8ne180100IfvEEOT_, symObjAddr: 0x1F80, symBinAddr: 0x1000098C8, symSize: 0x24 }
  - { offset: 0x2CCCC, size: 0x8, addend: 0x0, symName: __ZNSt3__122__compressed_pair_elemINS_21__unordered_map_equalINS_12basic_stringIcNS_11char_traitsIcEENS_9allocatorIcEEEENS_17__hash_value_typeIS7_P11SDL_TextureEENS_8equal_toIS7_EENS_4hashIS7_EELb1EEELi1ELb1EEC2B8ne180100ENS_18__default_init_tagE, symObjAddr: 0x1FA4, symBinAddr: 0x1000098EC, symSize: 0x2C }
  - { offset: 0x2CCFE, size: 0x8, addend: 0x0, symName: __ZNSt3__121__unordered_map_equalINS_12basic_stringIcNS_11char_traitsIcEENS_9allocatorIcEEEENS_17__hash_value_typeIS6_P11SDL_TextureEENS_8equal_toIS6_EENS_4hashIS6_EELb1EEC2B8ne180100Ev, symObjAddr: 0x1FD0, symBinAddr: 0x100009918, symSize: 0x14 }
  - { offset: 0x2CD26, size: 0x8, addend: 0x0, symName: __ZNSt3__16vectorIP5ActorNS_9allocatorIS2_EEE11__make_iterB8ne180100EPS2_, symObjAddr: 0x1FE4, symBinAddr: 0x10000992C, symSize: 0x30 }
  - { offset: 0x2CD59, size: 0x8, addend: 0x0, symName: __ZNSt3__111__wrap_iterIPP5ActorEC1B8ne180100ES3_, symObjAddr: 0x2014, symBinAddr: 0x10000995C, symSize: 0x34 }
  - { offset: 0x2CD8F, size: 0x8, addend: 0x0, symName: __ZNSt3__111__wrap_iterIPP5ActorEC2B8ne180100ES3_, symObjAddr: 0x2048, symBinAddr: 0x100009990, symSize: 0x20 }
  - { offset: 0x2CDC5, size: 0x8, addend: 0x0, symName: __ZNSt3__16vectorIP15SpriteComponentNS_9allocatorIS2_EEE11__make_iterB8ne180100EPS2_, symObjAddr: 0x2068, symBinAddr: 0x1000099B0, symSize: 0x30 }
  - { offset: 0x2CDF8, size: 0x8, addend: 0x0, symName: __ZNSt3__111__wrap_iterIPP15SpriteComponentEC1B8ne180100ES3_, symObjAddr: 0x2098, symBinAddr: 0x1000099E0, symSize: 0x34 }
  - { offset: 0x2CE2E, size: 0x8, addend: 0x0, symName: __ZNSt3__111__wrap_iterIPP15SpriteComponentEC2B8ne180100ES3_, symObjAddr: 0x20CC, symBinAddr: 0x100009A14, symSize: 0x20 }
  - { offset: 0x2CE64, size: 0x8, addend: 0x0, symName: __ZNSt3__112__hash_tableINS_17__hash_value_typeINS_12basic_stringIcNS_11char_traitsIcEENS_9allocatorIcEEEEP11SDL_TextureEENS_22__unordered_map_hasherIS7_SA_NS_4hashIS7_EENS_8equal_toIS7_EELb1EEENS_21__unordered_map_equalIS7_SA_SF_SD_Lb1EEENS5_ISA_EEE4findIS7_EENS_15__hash_iteratorIPNS_11__hash_nodeISA_PvEEEERKT_, symObjAddr: 0x20EC, symBinAddr: 0x100009A34, symSize: 0x1B0 }
  - { offset: 0x2CEEC, size: 0x8, addend: 0x0, symName: __ZNSt3__119__hash_map_iteratorINS_15__hash_iteratorIPNS_11__hash_nodeINS_17__hash_value_typeINS_12basic_stringIcNS_11char_traitsIcEENS_9allocatorIcEEEEP11SDL_TextureEEPvEEEEEC1B8ne180100ESG_, symObjAddr: 0x229C, symBinAddr: 0x100009BE4, symSize: 0x34 }
  - { offset: 0x2CF23, size: 0x8, addend: 0x0, symName: __ZNSt3__112__hash_tableINS_17__hash_value_typeINS_12basic_stringIcNS_11char_traitsIcEENS_9allocatorIcEEEEP11SDL_TextureEENS_22__unordered_map_hasherIS7_SA_NS_4hashIS7_EENS_8equal_toIS7_EELb1EEENS_21__unordered_map_equalIS7_SA_SF_SD_Lb1EEENS5_ISA_EEE13hash_functionB8ne180100Ev, symObjAddr: 0x22D0, symBinAddr: 0x100009C18, symSize: 0x28 }
  - { offset: 0x2CF47, size: 0x8, addend: 0x0, symName: __ZNKSt3__122__unordered_map_hasherINS_12basic_stringIcNS_11char_traitsIcEENS_9allocatorIcEEEENS_17__hash_value_typeIS6_P11SDL_TextureEENS_4hashIS6_EENS_8equal_toIS6_EELb1EEclB8ne180100ERKS6_, symObjAddr: 0x22F8, symBinAddr: 0x100009C40, symSize: 0x2C }
  - { offset: 0x2CF7A, size: 0x8, addend: 0x0, symName: __ZNKSt3__112__hash_tableINS_17__hash_value_typeINS_12basic_stringIcNS_11char_traitsIcEENS_9allocatorIcEEEEP11SDL_TextureEENS_22__unordered_map_hasherIS7_SA_NS_4hashIS7_EENS_8equal_toIS7_EELb1EEENS_21__unordered_map_equalIS7_SA_SF_SD_Lb1EEENS5_ISA_EEE12bucket_countB8ne180100Ev, symObjAddr: 0x2324, symBinAddr: 0x100009C6C, symSize: 0x28 }
  - { offset: 0x2CF9E, size: 0x8, addend: 0x0, symName: __ZNKSt3__110unique_ptrIA_PNS_16__hash_node_baseIPNS_11__hash_nodeINS_17__hash_value_typeINS_12basic_stringIcNS_11char_traitsIcEENS_9allocatorIcEEEEP11SDL_TextureEEPvEEEENS_25__bucket_list_deallocatorINS7_ISH_EEEEEixB8ne180100Em, symObjAddr: 0x23E4, symBinAddr: 0x100009D2C, symSize: 0x34 }
  - { offset: 0x2CFD1, size: 0x8, addend: 0x0, symName: __ZNKSt3__116__hash_node_baseIPNS_11__hash_nodeINS_17__hash_value_typeINS_12basic_stringIcNS_11char_traitsIcEENS_9allocatorIcEEEEP11SDL_TextureEEPvEEE6__hashB8ne180100Ev, symObjAddr: 0x2418, symBinAddr: 0x100009D60, symSize: 0x18 }
  - { offset: 0x2CFF5, size: 0x8, addend: 0x0, symName: __ZNSt3__112__hash_tableINS_17__hash_value_typeINS_12basic_stringIcNS_11char_traitsIcEENS_9allocatorIcEEEEP11SDL_TextureEENS_22__unordered_map_hasherIS7_SA_NS_4hashIS7_EENS_8equal_toIS7_EELb1EEENS_21__unordered_map_equalIS7_SA_SF_SD_Lb1EEENS5_ISA_EEE6key_eqB8ne180100Ev, symObjAddr: 0x2430, symBinAddr: 0x100009D78, symSize: 0x28 }
  - { offset: 0x2D019, size: 0x8, addend: 0x0, symName: __ZNKSt3__121__unordered_map_equalINS_12basic_stringIcNS_11char_traitsIcEENS_9allocatorIcEEEENS_17__hash_value_typeIS6_P11SDL_TextureEENS_8equal_toIS6_EENS_4hashIS6_EELb1EEclB8ne180100ERKSA_RKS6_, symObjAddr: 0x2458, symBinAddr: 0x100009DA0, symSize: 0x48 }
  - { offset: 0x2D05B, size: 0x8, addend: 0x0, symName: __ZNSt3__116__hash_node_baseIPNS_11__hash_nodeINS_17__hash_value_typeINS_12basic_stringIcNS_11char_traitsIcEENS_9allocatorIcEEEEP11SDL_TextureEEPvEEE8__upcastB8ne180100Ev, symObjAddr: 0x24A0, symBinAddr: 0x100009DE8, symSize: 0x24 }
  - { offset: 0x2D07F, size: 0x8, addend: 0x0, symName: __ZNSt3__111__hash_nodeINS_17__hash_value_typeINS_12basic_stringIcNS_11char_traitsIcEENS_9allocatorIcEEEEP11SDL_TextureEEPvE11__get_valueB8ne180100Ev, symObjAddr: 0x24C4, symBinAddr: 0x100009E0C, symSize: 0x18 }
  - { offset: 0x2D0A3, size: 0x8, addend: 0x0, symName: __ZNSt3__115__hash_iteratorIPNS_11__hash_nodeINS_17__hash_value_typeINS_12basic_stringIcNS_11char_traitsIcEENS_9allocatorIcEEEEP11SDL_TextureEEPvEEEC1B8ne180100EPNS_16__hash_node_baseISE_EE, symObjAddr: 0x24DC, symBinAddr: 0x100009E24, symSize: 0x34 }
  - { offset: 0x2D0DA, size: 0x8, addend: 0x0, symName: __ZNSt3__112__hash_tableINS_17__hash_value_typeINS_12basic_stringIcNS_11char_traitsIcEENS_9allocatorIcEEEEP11SDL_TextureEENS_22__unordered_map_hasherIS7_SA_NS_4hashIS7_EENS_8equal_toIS7_EELb1EEENS_21__unordered_map_equalIS7_SA_SF_SD_Lb1EEENS5_ISA_EEE3endEv, symObjAddr: 0x2510, symBinAddr: 0x100009E58, symSize: 0x2C }
  - { offset: 0x2D100, size: 0x8, addend: 0x0, symName: __ZNSt3__117__compressed_pairImNS_22__unordered_map_hasherINS_12basic_stringIcNS_11char_traitsIcEENS_9allocatorIcEEEENS_17__hash_value_typeIS7_P11SDL_TextureEENS_4hashIS7_EENS_8equal_toIS7_EELb1EEEE6secondB8ne180100Ev, symObjAddr: 0x253C, symBinAddr: 0x100009E84, symSize: 0x24 }
  - { offset: 0x2D124, size: 0x8, addend: 0x0, symName: __ZNSt3__122__compressed_pair_elemINS_22__unordered_map_hasherINS_12basic_stringIcNS_11char_traitsIcEENS_9allocatorIcEEEENS_17__hash_value_typeIS7_P11SDL_TextureEENS_4hashIS7_EENS_8equal_toIS7_EELb1EEELi1ELb1EE5__getB8ne180100Ev, symObjAddr: 0x2560, symBinAddr: 0x100009EA8, symSize: 0x14 }
  - { offset: 0x2D148, size: 0x8, addend: 0x0, symName: __ZNKSt3__113__string_hashIcNS_9allocatorIcEEEclB8ne180100ERKNS_12basic_stringIcNS_11char_traitsIcEES2_EE, symObjAddr: 0x2574, symBinAddr: 0x100009EBC, symSize: 0x64 }
  - { offset: 0x2D17B, size: 0x8, addend: 0x0, symName: __ZNKSt3__112basic_stringIcNS_11char_traitsIcEENS_9allocatorIcEEE4dataB8ne180100Ev, symObjAddr: 0x2614, symBinAddr: 0x100009F5C, symSize: 0x28 }
  - { offset: 0x2D19F, size: 0x8, addend: 0x0, symName: __ZNKSt3__112basic_stringIcNS_11char_traitsIcEENS_9allocatorIcEEE4sizeB8ne180100Ev, symObjAddr: 0x263C, symBinAddr: 0x100009F84, symSize: 0x54 }
  - { offset: 0x2D1C3, size: 0x8, addend: 0x0, symName: __ZNKSt3__121__murmur2_or_cityhashImLm64EEclB8ne180100EPKvm, symObjAddr: 0x2690, symBinAddr: 0x100009FD8, symSize: 0x410 }
  - { offset: 0x2D25B, size: 0x8, addend: 0x0, symName: __ZNSt3__121__murmur2_or_cityhashImLm64EE18__hash_len_0_to_16B8ne180100EPKcm, symObjAddr: 0x2AA0, symBinAddr: 0x10000A3E8, symSize: 0x1C8 }
  - { offset: 0x2D333, size: 0x8, addend: 0x0, symName: __ZNSt3__121__murmur2_or_cityhashImLm64EE19__hash_len_17_to_32B8ne180100EPKcm, symObjAddr: 0x2C68, symBinAddr: 0x10000A5B0, symSize: 0x130 }
  - { offset: 0x2D39B, size: 0x8, addend: 0x0, symName: __ZNSt3__121__murmur2_or_cityhashImLm64EE19__hash_len_33_to_64B8ne180100EPKcm, symObjAddr: 0x2D98, symBinAddr: 0x10000A6E0, symSize: 0x2B8 }
  - { offset: 0x2D44C, size: 0x8, addend: 0x0, symName: __ZNSt3__121__murmur2_or_cityhashImLm64EE13__hash_len_16B8ne180100Emm, symObjAddr: 0x3070, symBinAddr: 0x10000A9B8, symSize: 0x80 }
  - { offset: 0x2D4A6, size: 0x8, addend: 0x0, symName: __ZNSt3__121__murmur2_or_cityhashImLm64EE29__weak_hash_len_32_with_seedsB8ne180100EPKcmm, symObjAddr: 0x30F0, symBinAddr: 0x10000AA38, symSize: 0x88 }
  - { offset: 0x2D4E4, size: 0x8, addend: 0x0, symName: __ZNSt3__121__murmur2_or_cityhashImLm64EE8__rotateB8ne180100Emi, symObjAddr: 0x3178, symBinAddr: 0x10000AAC0, symSize: 0x64 }
  - { offset: 0x2D514, size: 0x8, addend: 0x0, symName: __ZNSt3__14pairImmEaSB8ne180100EOS1_, symObjAddr: 0x31DC, symBinAddr: 0x10000AB24, symSize: 0x30 }
  - { offset: 0x2D547, size: 0x8, addend: 0x0, symName: __ZNSt3__121__murmur2_or_cityhashImLm64EE11__shift_mixB8ne180100Em, symObjAddr: 0x3248, symBinAddr: 0x10000AB90, symSize: 0x1C }
  - { offset: 0x2D569, size: 0x8, addend: 0x0, symName: __ZNSt3__121__murmur2_or_cityhashImLm64EE22__rotate_by_at_least_1B8ne180100Emi, symObjAddr: 0x3264, symBinAddr: 0x10000ABAC, symSize: 0x38 }
  - { offset: 0x2D599, size: 0x8, addend: 0x0, symName: __ZNSt3__121__murmur2_or_cityhashImLm64EE29__weak_hash_len_32_with_seedsB8ne180100Emmmmmm, symObjAddr: 0x32BC, symBinAddr: 0x10000AC04, symSize: 0xD8 }
  - { offset: 0x2D614, size: 0x8, addend: 0x0, symName: __ZNSt3__14pairImmEC1B8ne180100ImmLi0EEEOT_OT0_, symObjAddr: 0x3394, symBinAddr: 0x10000ACDC, symSize: 0x3C }
  - { offset: 0x2D670, size: 0x8, addend: 0x0, symName: __ZNSt3__14pairImmEC2B8ne180100ImmLi0EEEOT_OT0_, symObjAddr: 0x33D0, symBinAddr: 0x10000AD18, symSize: 0x34 }
  - { offset: 0x2D6CC, size: 0x8, addend: 0x0, symName: __ZNKSt3__112basic_stringIcNS_11char_traitsIcEENS_9allocatorIcEEE13__get_pointerB8ne180100Ev, symObjAddr: 0x3418, symBinAddr: 0x10000AD60, symSize: 0x54 }
  - { offset: 0x2D6F0, size: 0x8, addend: 0x0, symName: __ZNKSt3__112basic_stringIcNS_11char_traitsIcEENS_9allocatorIcEEE9__is_longB8ne180100Ev, symObjAddr: 0x346C, symBinAddr: 0x10000ADB4, symSize: 0x38 }
  - { offset: 0x2D714, size: 0x8, addend: 0x0, symName: __ZNKSt3__112basic_stringIcNS_11char_traitsIcEENS_9allocatorIcEEE18__get_long_pointerB8ne180100Ev, symObjAddr: 0x34A4, symBinAddr: 0x10000ADEC, symSize: 0x28 }
  - { offset: 0x2D738, size: 0x8, addend: 0x0, symName: __ZNKSt3__112basic_stringIcNS_11char_traitsIcEENS_9allocatorIcEEE19__get_short_pointerB8ne180100Ev, symObjAddr: 0x34CC, symBinAddr: 0x10000AE14, symSize: 0x28 }
  - { offset: 0x2D75C, size: 0x8, addend: 0x0, symName: __ZNKSt3__117__compressed_pairINS_12basic_stringIcNS_11char_traitsIcEENS_9allocatorIcEEE5__repES5_E5firstB8ne180100Ev, symObjAddr: 0x34F4, symBinAddr: 0x10000AE3C, symSize: 0x24 }
  - { offset: 0x2D780, size: 0x8, addend: 0x0, symName: __ZNKSt3__122__compressed_pair_elemINS_12basic_stringIcNS_11char_traitsIcEENS_9allocatorIcEEE5__repELi0ELb0EE5__getB8ne180100Ev, symObjAddr: 0x3518, symBinAddr: 0x10000AE60, symSize: 0x14 }
  - { offset: 0x2D7A4, size: 0x8, addend: 0x0, symName: __ZNSt3__114pointer_traitsIPKcE10pointer_toB8ne180100ERS1_, symObjAddr: 0x352C, symBinAddr: 0x10000AE74, symSize: 0x14 }
  - { offset: 0x2D7C6, size: 0x8, addend: 0x0, symName: __ZNKSt3__112basic_stringIcNS_11char_traitsIcEENS_9allocatorIcEEE15__get_long_sizeB8ne180100Ev, symObjAddr: 0x3540, symBinAddr: 0x10000AE88, symSize: 0x28 }
  - { offset: 0x2D7EA, size: 0x8, addend: 0x0, symName: __ZNKSt3__112basic_stringIcNS_11char_traitsIcEENS_9allocatorIcEEE16__get_short_sizeB8ne180100Ev, symObjAddr: 0x3568, symBinAddr: 0x10000AEB0, symSize: 0x34 }
  - { offset: 0x2D80E, size: 0x8, addend: 0x0, symName: __ZNKSt3__110unique_ptrIA_PNS_16__hash_node_baseIPNS_11__hash_nodeINS_17__hash_value_typeINS_12basic_stringIcNS_11char_traitsIcEENS_9allocatorIcEEEEP11SDL_TextureEEPvEEEENS_25__bucket_list_deallocatorINS7_ISH_EEEEE11get_deleterB8ne180100Ev, symObjAddr: 0x359C, symBinAddr: 0x10000AEE4, symSize: 0x24 }
  - { offset: 0x2D832, size: 0x8, addend: 0x0, symName: __ZNKSt3__125__bucket_list_deallocatorINS_9allocatorIPNS_16__hash_node_baseIPNS_11__hash_nodeINS_17__hash_value_typeINS_12basic_stringIcNS_11char_traitsIcEENS1_IcEEEEP11SDL_TextureEEPvEEEEEEE4sizeB8ne180100Ev, symObjAddr: 0x35C0, symBinAddr: 0x10000AF08, symSize: 0x28 }
  - { offset: 0x2D856, size: 0x8, addend: 0x0, symName: __ZNKSt3__117__compressed_pairIPPNS_16__hash_node_baseIPNS_11__hash_nodeINS_17__hash_value_typeINS_12basic_stringIcNS_11char_traitsIcEENS_9allocatorIcEEEEP11SDL_TextureEEPvEEEENS_25__bucket_list_deallocatorINS7_ISH_EEEEE6secondB8ne180100Ev, symObjAddr: 0x35E8, symBinAddr: 0x10000AF30, symSize: 0x28 }
  - { offset: 0x2D87A, size: 0x8, addend: 0x0, symName: __ZNKSt3__122__compressed_pair_elemINS_25__bucket_list_deallocatorINS_9allocatorIPNS_16__hash_node_baseIPNS_11__hash_nodeINS_17__hash_value_typeINS_12basic_stringIcNS_11char_traitsIcEENS2_IcEEEEP11SDL_TextureEEPvEEEEEEEELi1ELb0EE5__getB8ne180100Ev, symObjAddr: 0x3610, symBinAddr: 0x10000AF58, symSize: 0x14 }
  - { offset: 0x2D89E, size: 0x8, addend: 0x0, symName: __ZNKSt3__117__compressed_pairImNS_9allocatorIPNS_16__hash_node_baseIPNS_11__hash_nodeINS_17__hash_value_typeINS_12basic_stringIcNS_11char_traitsIcEENS1_IcEEEEP11SDL_TextureEEPvEEEEEEE5firstB8ne180100Ev, symObjAddr: 0x3624, symBinAddr: 0x10000AF6C, symSize: 0x24 }
  - { offset: 0x2D8C2, size: 0x8, addend: 0x0, symName: __ZNKSt3__122__compressed_pair_elemImLi0ELb0EE5__getB8ne180100Ev, symObjAddr: 0x3648, symBinAddr: 0x10000AF90, symSize: 0x14 }
  - { offset: 0x2D8E6, size: 0x8, addend: 0x0, symName: __ZNKSt3__117__compressed_pairIPPNS_16__hash_node_baseIPNS_11__hash_nodeINS_17__hash_value_typeINS_12basic_stringIcNS_11char_traitsIcEENS_9allocatorIcEEEEP11SDL_TextureEEPvEEEENS_25__bucket_list_deallocatorINS7_ISH_EEEEE5firstB8ne180100Ev, symObjAddr: 0x365C, symBinAddr: 0x10000AFA4, symSize: 0x24 }
  - { offset: 0x2D90A, size: 0x8, addend: 0x0, symName: __ZNKSt3__122__compressed_pair_elemIPPNS_16__hash_node_baseIPNS_11__hash_nodeINS_17__hash_value_typeINS_12basic_stringIcNS_11char_traitsIcEENS_9allocatorIcEEEEP11SDL_TextureEEPvEEEELi0ELb0EE5__getB8ne180100Ev, symObjAddr: 0x3680, symBinAddr: 0x10000AFC8, symSize: 0x14 }
  - { offset: 0x2D92E, size: 0x8, addend: 0x0, symName: __ZNSt3__117__compressed_pairIfNS_21__unordered_map_equalINS_12basic_stringIcNS_11char_traitsIcEENS_9allocatorIcEEEENS_17__hash_value_typeIS7_P11SDL_TextureEENS_8equal_toIS7_EENS_4hashIS7_EELb1EEEE6secondB8ne180100Ev, symObjAddr: 0x3694, symBinAddr: 0x10000AFDC, symSize: 0x24 }
  - { offset: 0x2D952, size: 0x8, addend: 0x0, symName: __ZNSt3__122__compressed_pair_elemINS_21__unordered_map_equalINS_12basic_stringIcNS_11char_traitsIcEENS_9allocatorIcEEEENS_17__hash_value_typeIS7_P11SDL_TextureEENS_8equal_toIS7_EENS_4hashIS7_EELb1EEELi1ELb1EE5__getB8ne180100Ev, symObjAddr: 0x36B8, symBinAddr: 0x10000B000, symSize: 0x14 }
  - { offset: 0x2D976, size: 0x8, addend: 0x0, symName: __ZNKSt3__18equal_toINS_12basic_stringIcNS_11char_traitsIcEENS_9allocatorIcEEEEEclB8ne180100ERKS6_S9_, symObjAddr: 0x36CC, symBinAddr: 0x10000B014, symSize: 0x34 }
  - { offset: 0x2D9B8, size: 0x8, addend: 0x0, symName: __ZNKSt3__117__hash_value_typeINS_12basic_stringIcNS_11char_traitsIcEENS_9allocatorIcEEEEP11SDL_TextureE11__get_valueB8ne180100Ev, symObjAddr: 0x3700, symBinAddr: 0x10000B048, symSize: 0x24 }
  - { offset: 0x2D9DC, size: 0x8, addend: 0x0, symName: __ZNSt3__111char_traitsIcE7compareB8ne180100EPKcS3_m, symObjAddr: 0x386C, symBinAddr: 0x10000B1B4, symSize: 0x34 }
  - { offset: 0x2DA1A, size: 0x8, addend: 0x0, symName: __ZNSt3__114pointer_traitsIPNS_16__hash_node_baseIPNS_11__hash_nodeINS_17__hash_value_typeINS_12basic_stringIcNS_11char_traitsIcEENS_9allocatorIcEEEEP11SDL_TextureEEPvEEEEE10pointer_toB8ne180100ERSG_, symObjAddr: 0x38D8, symBinAddr: 0x10000B220, symSize: 0x14 }
  - { offset: 0x2DA3C, size: 0x8, addend: 0x0, symName: __ZNSt3__115__hash_iteratorIPNS_11__hash_nodeINS_17__hash_value_typeINS_12basic_stringIcNS_11char_traitsIcEENS_9allocatorIcEEEEP11SDL_TextureEEPvEEEC2B8ne180100EPNS_16__hash_node_baseISE_EE, symObjAddr: 0x38EC, symBinAddr: 0x10000B234, symSize: 0x20 }
  - { offset: 0x2DA73, size: 0x8, addend: 0x0, symName: __ZNSt3__119__hash_map_iteratorINS_15__hash_iteratorIPNS_11__hash_nodeINS_17__hash_value_typeINS_12basic_stringIcNS_11char_traitsIcEENS_9allocatorIcEEEEP11SDL_TextureEEPvEEEEEC2B8ne180100ESG_, symObjAddr: 0x390C, symBinAddr: 0x10000B254, symSize: 0x20 }
  - { offset: 0x2DAAA, size: 0x8, addend: 0x0, symName: __ZNSt3__114pointer_traitsIPNS_4pairIKNS_12basic_stringIcNS_11char_traitsIcEENS_9allocatorIcEEEEP11SDL_TextureEEE10pointer_toB8ne180100ERSB_, symObjAddr: 0x3990, symBinAddr: 0x10000B2D8, symSize: 0x14 }
  - { offset: 0x2DACC, size: 0x8, addend: 0x0, symName: __ZNKSt3__115__hash_iteratorIPNS_11__hash_nodeINS_17__hash_value_typeINS_12basic_stringIcNS_11char_traitsIcEENS_9allocatorIcEEEEP11SDL_TextureEEPvEEEptB8ne180100Ev, symObjAddr: 0x39A4, symBinAddr: 0x10000B2EC, symSize: 0x30 }
  - { offset: 0x2DAF0, size: 0x8, addend: 0x0, symName: __ZNSt3__117__hash_value_typeINS_12basic_stringIcNS_11char_traitsIcEENS_9allocatorIcEEEEP11SDL_TextureE11__get_valueB8ne180100Ev, symObjAddr: 0x39D4, symBinAddr: 0x10000B31C, symSize: 0x24 }
  - { offset: 0x2DB14, size: 0x8, addend: 0x0, symName: __ZNSt3__114pointer_traitsIPNS_17__hash_value_typeINS_12basic_stringIcNS_11char_traitsIcEENS_9allocatorIcEEEEP11SDL_TextureEEE10pointer_toB8ne180100ERSA_, symObjAddr: 0x39F8, symBinAddr: 0x10000B340, symSize: 0x14 }
  - { offset: 0x2DB36, size: 0x8, addend: 0x0, symName: __ZNSt3__112__hash_tableINS_17__hash_value_typeINS_12basic_stringIcNS_11char_traitsIcEENS_9allocatorIcEEEEP11SDL_TextureEENS_22__unordered_map_hasherIS7_SA_NS_4hashIS7_EENS_8equal_toIS7_EELb1EEENS_21__unordered_map_equalIS7_SA_SF_SD_Lb1EEENS5_ISA_EEE16__emplace_uniqueB8ne180100IJPKcRS9_EEENS_4pairINS_15__hash_iteratorIPNS_11__hash_nodeISA_PvEEEEbEEDpOT_, symObjAddr: 0x3A44, symBinAddr: 0x10000B38C, symSize: 0x44 }
  - { offset: 0x2DB88, size: 0x8, addend: 0x0, symName: __ZNSt3__14pairINS_19__hash_map_iteratorINS_15__hash_iteratorIPNS_11__hash_nodeINS_17__hash_value_typeINS_12basic_stringIcNS_11char_traitsIcEENS_9allocatorIcEEEEP11SDL_TextureEEPvEEEEEEbEC1B8ne180100ISH_bLi0EEEONS0_IT_T0_EE, symObjAddr: 0x3A88, symBinAddr: 0x10000B3D0, symSize: 0x34 }
  - { offset: 0x2DBD6, size: 0x8, addend: 0x0, symName: __ZNSt3__112__hash_tableINS_17__hash_value_typeINS_12basic_stringIcNS_11char_traitsIcEENS_9allocatorIcEEEEP11SDL_TextureEENS_22__unordered_map_hasherIS7_SA_NS_4hashIS7_EENS_8equal_toIS7_EELb1EEENS_21__unordered_map_equalIS7_SA_SF_SD_Lb1EEENS5_ISA_EEE21__emplace_unique_implIJPKcRS9_EEENS_4pairINS_15__hash_iteratorIPNS_11__hash_nodeISA_PvEEEEbEEDpOT_, symObjAddr: 0x3ABC, symBinAddr: 0x10000B404, symSize: 0xB8 }
  - { offset: 0x2DC48, size: 0x8, addend: 0x0, symName: __ZNSt3__112__hash_tableINS_17__hash_value_typeINS_12basic_stringIcNS_11char_traitsIcEENS_9allocatorIcEEEEP11SDL_TextureEENS_22__unordered_map_hasherIS7_SA_NS_4hashIS7_EENS_8equal_toIS7_EELb1EEENS_21__unordered_map_equalIS7_SA_SF_SD_Lb1EEENS5_ISA_EEE16__construct_nodeIJPKcRS9_EEENS_10unique_ptrINS_11__hash_nodeISA_PvEENS_22__hash_node_destructorINS5_ISS_EEEEEEDpOT_, symObjAddr: 0x3B74, symBinAddr: 0x10000B4BC, symSize: 0x18C }
  - { offset: 0x2DCBB, size: 0x8, addend: 0x0, symName: __ZNSt3__112__hash_tableINS_17__hash_value_typeINS_12basic_stringIcNS_11char_traitsIcEENS_9allocatorIcEEEEP11SDL_TextureEENS_22__unordered_map_hasherIS7_SA_NS_4hashIS7_EENS_8equal_toIS7_EELb1EEENS_21__unordered_map_equalIS7_SA_SF_SD_Lb1EEENS5_ISA_EEE20__node_insert_uniqueEPNS_11__hash_nodeISA_PvEE, symObjAddr: 0x3D00, symBinAddr: 0x10000B648, symSize: 0xD8 }
  - { offset: 0x2DD0E, size: 0x8, addend: 0x0, symName: __ZNKSt3__110unique_ptrINS_11__hash_nodeINS_17__hash_value_typeINS_12basic_stringIcNS_11char_traitsIcEENS_9allocatorIcEEEEP11SDL_TextureEEPvEENS_22__hash_node_destructorINS6_ISD_EEEEE3getB8ne180100Ev, symObjAddr: 0x3DD8, symBinAddr: 0x10000B720, symSize: 0x28 }
  - { offset: 0x2DD32, size: 0x8, addend: 0x0, symName: __ZNSt3__110unique_ptrINS_11__hash_nodeINS_17__hash_value_typeINS_12basic_stringIcNS_11char_traitsIcEENS_9allocatorIcEEEEP11SDL_TextureEEPvEENS_22__hash_node_destructorINS6_ISD_EEEEE7releaseB8ne180100Ev, symObjAddr: 0x3E00, symBinAddr: 0x10000B748, symSize: 0x44 }
  - { offset: 0x2DD65, size: 0x8, addend: 0x0, symName: __ZNSt3__110unique_ptrINS_11__hash_nodeINS_17__hash_value_typeINS_12basic_stringIcNS_11char_traitsIcEENS_9allocatorIcEEEEP11SDL_TextureEEPvEENS_22__hash_node_destructorINS6_ISD_EEEEED1B8ne180100Ev, symObjAddr: 0x3E44, symBinAddr: 0x10000B78C, symSize: 0x2C }
  - { offset: 0x2DD8D, size: 0x8, addend: 0x0, symName: __ZNSt3__112__hash_tableINS_17__hash_value_typeINS_12basic_stringIcNS_11char_traitsIcEENS_9allocatorIcEEEEP11SDL_TextureEENS_22__unordered_map_hasherIS7_SA_NS_4hashIS7_EENS_8equal_toIS7_EELb1EEENS_21__unordered_map_equalIS7_SA_SF_SD_Lb1EEENS5_ISA_EEE12__node_allocB8ne180100Ev, symObjAddr: 0x3E70, symBinAddr: 0x10000B7B8, symSize: 0x28 }
  - { offset: 0x2DDB1, size: 0x8, addend: 0x0, symName: __ZNSt3__116allocator_traitsINS_9allocatorINS_11__hash_nodeINS_17__hash_value_typeINS_12basic_stringIcNS_11char_traitsIcEENS1_IcEEEEP11SDL_TextureEEPvEEEEE8allocateB8ne180100ERSE_m, symObjAddr: 0x3E98, symBinAddr: 0x10000B7E0, symSize: 0x2C }
  - { offset: 0x2DDE3, size: 0x8, addend: 0x0, symName: __ZNSt3__122__hash_node_destructorINS_9allocatorINS_11__hash_nodeINS_17__hash_value_typeINS_12basic_stringIcNS_11char_traitsIcEENS1_IcEEEEP11SDL_TextureEEPvEEEEEC1B8ne180100ERSE_b, symObjAddr: 0x3EC4, symBinAddr: 0x10000B80C, symSize: 0x48 }
  - { offset: 0x2DE2E, size: 0x8, addend: 0x0, symName: __ZNSt3__110unique_ptrINS_11__hash_nodeINS_17__hash_value_typeINS_12basic_stringIcNS_11char_traitsIcEENS_9allocatorIcEEEEP11SDL_TextureEEPvEENS_22__hash_node_destructorINS6_ISD_EEEEEC1B8ne180100ILb1EvEEPSD_NS_16__dependent_typeINS_27__unique_ptr_deleter_sfinaeISG_EEXT_EE20__good_rval_ref_typeE, symObjAddr: 0x3F0C, symBinAddr: 0x10000B854, symSize: 0x3C }
  - { offset: 0x2DE7D, size: 0x8, addend: 0x0, symName: __ZNKSt3__110unique_ptrINS_11__hash_nodeINS_17__hash_value_typeINS_12basic_stringIcNS_11char_traitsIcEENS_9allocatorIcEEEEP11SDL_TextureEEPvEENS_22__hash_node_destructorINS6_ISD_EEEEEdeB8ne180100Ev, symObjAddr: 0x3F88, symBinAddr: 0x10000B8D0, symSize: 0x28 }
  - { offset: 0x2DEA1, size: 0x8, addend: 0x0, symName: __ZNSt3__116allocator_traitsINS_9allocatorINS_11__hash_nodeINS_17__hash_value_typeINS_12basic_stringIcNS_11char_traitsIcEENS1_IcEEEEP11SDL_TextureEEPvEEEEE9constructB8ne180100INS_4pairIKS8_SA_EEJPKcRSA_EvEEvRSE_PT_DpOT0_, symObjAddr: 0x3FB0, symBinAddr: 0x10000B8F8, symSize: 0x3C }
  - { offset: 0x2DF0B, size: 0x8, addend: 0x0, symName: __ZNSt3__122__hash_key_value_typesINS_17__hash_value_typeINS_12basic_stringIcNS_11char_traitsIcEENS_9allocatorIcEEEEP11SDL_TextureEEE9__get_ptrB8ne180100ERSA_, symObjAddr: 0x3FEC, symBinAddr: 0x10000B934, symSize: 0x24 }
  - { offset: 0x2DF2D, size: 0x8, addend: 0x0, symName: __ZNKSt3__110unique_ptrINS_11__hash_nodeINS_17__hash_value_typeINS_12basic_stringIcNS_11char_traitsIcEENS_9allocatorIcEEEEP11SDL_TextureEEPvEENS_22__hash_node_destructorINS6_ISD_EEEEEptB8ne180100Ev, symObjAddr: 0x4010, symBinAddr: 0x10000B958, symSize: 0x28 }
  - { offset: 0x2DF51, size: 0x8, addend: 0x0, symName: __ZNSt3__110unique_ptrINS_11__hash_nodeINS_17__hash_value_typeINS_12basic_stringIcNS_11char_traitsIcEENS_9allocatorIcEEEEP11SDL_TextureEEPvEENS_22__hash_node_destructorINS6_ISD_EEEEE11get_deleterB8ne180100Ev, symObjAddr: 0x4038, symBinAddr: 0x10000B980, symSize: 0x24 }
  - { offset: 0x2DF75, size: 0x8, addend: 0x0, symName: __ZNKSt3__122__unordered_map_hasherINS_12basic_stringIcNS_11char_traitsIcEENS_9allocatorIcEEEENS_17__hash_value_typeIS6_P11SDL_TextureEENS_4hashIS6_EENS_8equal_toIS6_EELb1EEclB8ne180100ERKSA_, symObjAddr: 0x405C, symBinAddr: 0x10000B9A4, symSize: 0x3C }
  - { offset: 0x2DFA8, size: 0x8, addend: 0x0, symName: __ZNSt3__117__compressed_pairINS_16__hash_node_baseIPNS_11__hash_nodeINS_17__hash_value_typeINS_12basic_stringIcNS_11char_traitsIcEENS_9allocatorIcEEEEP11SDL_TextureEEPvEEEENS7_ISE_EEE6secondB8ne180100Ev, symObjAddr: 0x4098, symBinAddr: 0x10000B9E0, symSize: 0x24 }
  - { offset: 0x2DFCC, size: 0x8, addend: 0x0, symName: __ZNSt3__122__compressed_pair_elemINS_9allocatorINS_11__hash_nodeINS_17__hash_value_typeINS_12basic_stringIcNS_11char_traitsIcEENS1_IcEEEEP11SDL_TextureEEPvEEEELi1ELb1EE5__getB8ne180100Ev, symObjAddr: 0x40BC, symBinAddr: 0x10000BA04, symSize: 0x14 }
  - { offset: 0x2DFF0, size: 0x8, addend: 0x0, symName: __ZNSt3__19allocatorINS_11__hash_nodeINS_17__hash_value_typeINS_12basic_stringIcNS_11char_traitsIcEENS0_IcEEEEP11SDL_TextureEEPvEEE8allocateB8ne180100Em, symObjAddr: 0x40D0, symBinAddr: 0x10000BA18, symSize: 0x5C }
  - { offset: 0x2E02C, size: 0x8, addend: 0x0, symName: __ZNSt3__116allocator_traitsINS_9allocatorINS_11__hash_nodeINS_17__hash_value_typeINS_12basic_stringIcNS_11char_traitsIcEENS1_IcEEEEP11SDL_TextureEEPvEEEEE8max_sizeB8ne180100ISE_vEEmRKSE_, symObjAddr: 0x412C, symBinAddr: 0x10000BA74, symSize: 0x24 }
  - { offset: 0x2E059, size: 0x8, addend: 0x0, symName: __ZNKSt3__19allocatorINS_11__hash_nodeINS_17__hash_value_typeINS_12basic_stringIcNS_11char_traitsIcEENS0_IcEEEEP11SDL_TextureEEPvEEE8max_sizeB8ne180100Ev, symObjAddr: 0x41E4, symBinAddr: 0x10000BA98, symSize: 0x18 }
  - { offset: 0x2E07D, size: 0x8, addend: 0x0, symName: __ZNSt3__122__hash_node_destructorINS_9allocatorINS_11__hash_nodeINS_17__hash_value_typeINS_12basic_stringIcNS_11char_traitsIcEENS1_IcEEEEP11SDL_TextureEEPvEEEEEC2B8ne180100ERSE_b, symObjAddr: 0x426C, symBinAddr: 0x10000BAB0, symSize: 0x38 }
  - { offset: 0x2E0C3, size: 0x8, addend: 0x0, symName: __ZNSt3__110unique_ptrINS_11__hash_nodeINS_17__hash_value_typeINS_12basic_stringIcNS_11char_traitsIcEENS_9allocatorIcEEEEP11SDL_TextureEEPvEENS_22__hash_node_destructorINS6_ISD_EEEEEC2B8ne180100ILb1EvEEPSD_NS_16__dependent_typeINS_27__unique_ptr_deleter_sfinaeISG_EEXT_EE20__good_rval_ref_typeE, symObjAddr: 0x42A4, symBinAddr: 0x10000BAE8, symSize: 0x48 }
  - { offset: 0x2E112, size: 0x8, addend: 0x0, symName: __ZNSt3__117__compressed_pairIPNS_11__hash_nodeINS_17__hash_value_typeINS_12basic_stringIcNS_11char_traitsIcEENS_9allocatorIcEEEEP11SDL_TextureEEPvEENS_22__hash_node_destructorINS6_ISD_EEEEEC1B8ne180100IRSE_SH_EEOT_OT0_, symObjAddr: 0x42EC, symBinAddr: 0x10000BB30, symSize: 0x3C }
  - { offset: 0x2E168, size: 0x8, addend: 0x0, symName: __ZNSt3__117__compressed_pairIPNS_11__hash_nodeINS_17__hash_value_typeINS_12basic_stringIcNS_11char_traitsIcEENS_9allocatorIcEEEEP11SDL_TextureEEPvEENS_22__hash_node_destructorINS6_ISD_EEEEEC2B8ne180100IRSE_SH_EEOT_OT0_, symObjAddr: 0x4328, symBinAddr: 0x10000BB6C, symSize: 0x48 }
  - { offset: 0x2E1BE, size: 0x8, addend: 0x0, symName: __ZNSt3__122__compressed_pair_elemIPNS_11__hash_nodeINS_17__hash_value_typeINS_12basic_stringIcNS_11char_traitsIcEENS_9allocatorIcEEEEP11SDL_TextureEEPvEELi0ELb0EEC2B8ne180100IRSE_vEEOT_, symObjAddr: 0x4370, symBinAddr: 0x10000BBB4, symSize: 0x24 }
  - { offset: 0x2E1FE, size: 0x8, addend: 0x0, symName: __ZNSt3__122__compressed_pair_elemINS_22__hash_node_destructorINS_9allocatorINS_11__hash_nodeINS_17__hash_value_typeINS_12basic_stringIcNS_11char_traitsIcEENS2_IcEEEEP11SDL_TextureEEPvEEEEEELi1ELb0EEC2B8ne180100ISG_vEEOT_, symObjAddr: 0x4394, symBinAddr: 0x10000BBD8, symSize: 0x24 }
  - { offset: 0x2E23E, size: 0x8, addend: 0x0, symName: __ZNSt3__111__hash_nodeINS_17__hash_value_typeINS_12basic_stringIcNS_11char_traitsIcEENS_9allocatorIcEEEEP11SDL_TextureEEPvEC1B8ne180100EPNS_16__hash_node_baseIPSC_EEm, symObjAddr: 0x43B8, symBinAddr: 0x10000BBFC, symSize: 0x3C }
  - { offset: 0x2E282, size: 0x8, addend: 0x0, symName: __ZNSt3__111__hash_nodeINS_17__hash_value_typeINS_12basic_stringIcNS_11char_traitsIcEENS_9allocatorIcEEEEP11SDL_TextureEEPvEC2B8ne180100EPNS_16__hash_node_baseIPSC_EEm, symObjAddr: 0x43F4, symBinAddr: 0x10000BC38, symSize: 0x40 }
  - { offset: 0x2E2C6, size: 0x8, addend: 0x0, symName: __ZNSt3__116__hash_node_baseIPNS_11__hash_nodeINS_17__hash_value_typeINS_12basic_stringIcNS_11char_traitsIcEENS_9allocatorIcEEEEP11SDL_TextureEEPvEEEC2B8ne180100EPSF_, symObjAddr: 0x4434, symBinAddr: 0x10000BC78, symSize: 0x20 }
  - { offset: 0x2E2FC, size: 0x8, addend: 0x0, symName: __ZNKSt3__117__compressed_pairIPNS_11__hash_nodeINS_17__hash_value_typeINS_12basic_stringIcNS_11char_traitsIcEENS_9allocatorIcEEEEP11SDL_TextureEEPvEENS_22__hash_node_destructorINS6_ISD_EEEEE5firstB8ne180100Ev, symObjAddr: 0x4454, symBinAddr: 0x10000BC98, symSize: 0x24 }
  - { offset: 0x2E320, size: 0x8, addend: 0x0, symName: __ZNKSt3__122__compressed_pair_elemIPNS_11__hash_nodeINS_17__hash_value_typeINS_12basic_stringIcNS_11char_traitsIcEENS_9allocatorIcEEEEP11SDL_TextureEEPvEELi0ELb0EE5__getB8ne180100Ev, symObjAddr: 0x4478, symBinAddr: 0x10000BCBC, symSize: 0x14 }
  - { offset: 0x2E344, size: 0x8, addend: 0x0, symName: __ZNSt3__19allocatorINS_11__hash_nodeINS_17__hash_value_typeINS_12basic_stringIcNS_11char_traitsIcEENS0_IcEEEEP11SDL_TextureEEPvEEE9constructB8ne180100INS_4pairIKS7_S9_EEJPKcRS9_EEEvPT_DpOT0_, symObjAddr: 0x448C, symBinAddr: 0x10000BCD0, symSize: 0x38 }
  - { offset: 0x2E3AB, size: 0x8, addend: 0x0, symName: __ZNSt3__14pairIKNS_12basic_stringIcNS_11char_traitsIcEENS_9allocatorIcEEEEP11SDL_TextureEC1B8ne180100IPKcRS9_Li0EEEOT_OT0_, symObjAddr: 0x44C4, symBinAddr: 0x10000BD08, symSize: 0x3C }
  - { offset: 0x2E407, size: 0x8, addend: 0x0, symName: __ZNSt3__14pairIKNS_12basic_stringIcNS_11char_traitsIcEENS_9allocatorIcEEEEP11SDL_TextureEC2B8ne180100IPKcRS9_Li0EEEOT_OT0_, symObjAddr: 0x4500, symBinAddr: 0x10000BD44, symSize: 0x48 }
  - { offset: 0x2E468, size: 0x8, addend: 0x0, symName: __ZNSt3__117__compressed_pairIPNS_11__hash_nodeINS_17__hash_value_typeINS_12basic_stringIcNS_11char_traitsIcEENS_9allocatorIcEEEEP11SDL_TextureEEPvEENS_22__hash_node_destructorINS6_ISD_EEEEE6secondB8ne180100Ev, symObjAddr: 0x4724, symBinAddr: 0x10000BD8C, symSize: 0x28 }
  - { offset: 0x2E48C, size: 0x8, addend: 0x0, symName: __ZNSt3__122__compressed_pair_elemINS_22__hash_node_destructorINS_9allocatorINS_11__hash_nodeINS_17__hash_value_typeINS_12basic_stringIcNS_11char_traitsIcEENS2_IcEEEEP11SDL_TextureEEPvEEEEEELi1ELb0EE5__getB8ne180100Ev, symObjAddr: 0x474C, symBinAddr: 0x10000BDB4, symSize: 0x14 }
  - { offset: 0x2E4B0, size: 0x8, addend: 0x0, symName: __ZNSt3__112__hash_tableINS_17__hash_value_typeINS_12basic_stringIcNS_11char_traitsIcEENS_9allocatorIcEEEEP11SDL_TextureEENS_22__unordered_map_hasherIS7_SA_NS_4hashIS7_EENS_8equal_toIS7_EELb1EEENS_21__unordered_map_equalIS7_SA_SF_SD_Lb1EEENS5_ISA_EEE28__node_insert_unique_prepareB8ne180100EmRSA_, symObjAddr: 0x4760, symBinAddr: 0x10000BDC8, symSize: 0x290 }
  - { offset: 0x2E52F, size: 0x8, addend: 0x0, symName: __ZNSt3__112__hash_tableINS_17__hash_value_typeINS_12basic_stringIcNS_11char_traitsIcEENS_9allocatorIcEEEEP11SDL_TextureEENS_22__unordered_map_hasherIS7_SA_NS_4hashIS7_EENS_8equal_toIS7_EELb1EEENS_21__unordered_map_equalIS7_SA_SF_SD_Lb1EEENS5_ISA_EEE28__node_insert_unique_performB8ne180100EPNS_11__hash_nodeISA_PvEE, symObjAddr: 0x49F0, symBinAddr: 0x10000C058, symSize: 0x154 }
  - { offset: 0x2E591, size: 0x8, addend: 0x0, symName: __ZNSt3__116__hash_node_baseIPNS_11__hash_nodeINS_17__hash_value_typeINS_12basic_stringIcNS_11char_traitsIcEENS_9allocatorIcEEEEP11SDL_TextureEEPvEEE5__ptrB8ne180100Ev, symObjAddr: 0x4B44, symBinAddr: 0x10000C1AC, symSize: 0x24 }
  - { offset: 0x2E5BF, size: 0x8, addend: 0x0, symName: __ZNSt3__14pairINS_15__hash_iteratorIPNS_11__hash_nodeINS_17__hash_value_typeINS_12basic_stringIcNS_11char_traitsIcEENS_9allocatorIcEEEEP11SDL_TextureEEPvEEEEbEC1B8ne180100ISG_RbLi0EEEOT_OT0_, symObjAddr: 0x4B68, symBinAddr: 0x10000C1D0, symSize: 0x3C }
  - { offset: 0x2E61B, size: 0x8, addend: 0x0, symName: __ZNKSt3__121__unordered_map_equalINS_12basic_stringIcNS_11char_traitsIcEENS_9allocatorIcEEEENS_17__hash_value_typeIS6_P11SDL_TextureEENS_8equal_toIS6_EENS_4hashIS6_EELb1EEclB8ne180100ERKSA_SH_, symObjAddr: 0x4BA4, symBinAddr: 0x10000C20C, symSize: 0x54 }
  - { offset: 0x2E65D, size: 0x8, addend: 0x0, symName: __ZNSt3__112__hash_tableINS_17__hash_value_typeINS_12basic_stringIcNS_11char_traitsIcEENS_9allocatorIcEEEEP11SDL_TextureEENS_22__unordered_map_hasherIS7_SA_NS_4hashIS7_EENS_8equal_toIS7_EELb1EEENS_21__unordered_map_equalIS7_SA_SF_SD_Lb1EEENS5_ISA_EEE4sizeB8ne180100Ev, symObjAddr: 0x4BF8, symBinAddr: 0x10000C260, symSize: 0x28 }
  - { offset: 0x2E681, size: 0x8, addend: 0x0, symName: __ZNSt3__112__hash_tableINS_17__hash_value_typeINS_12basic_stringIcNS_11char_traitsIcEENS_9allocatorIcEEEEP11SDL_TextureEENS_22__unordered_map_hasherIS7_SA_NS_4hashIS7_EENS_8equal_toIS7_EELb1EEENS_21__unordered_map_equalIS7_SA_SF_SD_Lb1EEENS5_ISA_EEE15max_load_factorB8ne180100Ev, symObjAddr: 0x4C20, symBinAddr: 0x10000C288, symSize: 0x28 }
  - { offset: 0x2E6A5, size: 0x8, addend: 0x0, symName: __ZNSt3__112__hash_tableINS_17__hash_value_typeINS_12basic_stringIcNS_11char_traitsIcEENS_9allocatorIcEEEEP11SDL_TextureEENS_22__unordered_map_hasherIS7_SA_NS_4hashIS7_EENS_8equal_toIS7_EELb1EEENS_21__unordered_map_equalIS7_SA_SF_SD_Lb1EEENS5_ISA_EEE15__rehash_uniqueB8ne180100Em, symObjAddr: 0x4C48, symBinAddr: 0x10000C2B0, symSize: 0x2C }
  - { offset: 0x2E6D8, size: 0x8, addend: 0x0, symName: __ZNSt3__117__compressed_pairImNS_22__unordered_map_hasherINS_12basic_stringIcNS_11char_traitsIcEENS_9allocatorIcEEEENS_17__hash_value_typeIS7_P11SDL_TextureEENS_4hashIS7_EENS_8equal_toIS7_EELb1EEEE5firstB8ne180100Ev, symObjAddr: 0x4D08, symBinAddr: 0x10000C344, symSize: 0x24 }
  - { offset: 0x2E6FC, size: 0x8, addend: 0x0, symName: __ZNSt3__122__compressed_pair_elemImLi0ELb0EE5__getB8ne180100Ev, symObjAddr: 0x4D2C, symBinAddr: 0x10000C368, symSize: 0x14 }
  - { offset: 0x2E720, size: 0x8, addend: 0x0, symName: __ZNSt3__117__compressed_pairIfNS_21__unordered_map_equalINS_12basic_stringIcNS_11char_traitsIcEENS_9allocatorIcEEEENS_17__hash_value_typeIS7_P11SDL_TextureEENS_8equal_toIS7_EENS_4hashIS7_EELb1EEEE5firstB8ne180100Ev, symObjAddr: 0x4D40, symBinAddr: 0x10000C37C, symSize: 0x24 }
  - { offset: 0x2E744, size: 0x8, addend: 0x0, symName: __ZNSt3__122__compressed_pair_elemIfLi0ELb0EE5__getB8ne180100Ev, symObjAddr: 0x4D64, symBinAddr: 0x10000C3A0, symSize: 0x14 }
  - { offset: 0x2E768, size: 0x8, addend: 0x0, symName: __ZNSt3__112__hash_tableINS_17__hash_value_typeINS_12basic_stringIcNS_11char_traitsIcEENS_9allocatorIcEEEEP11SDL_TextureEENS_22__unordered_map_hasherIS7_SA_NS_4hashIS7_EENS_8equal_toIS7_EELb1EEENS_21__unordered_map_equalIS7_SA_SF_SD_Lb1EEENS5_ISA_EEE8__rehashILb1EEEvm, symObjAddr: 0x4D78, symBinAddr: 0x10000C3B4, symSize: 0x1A8 }
  - { offset: 0x2E7B6, size: 0x8, addend: 0x0, symName: __ZNSt3__112__hash_tableINS_17__hash_value_typeINS_12basic_stringIcNS_11char_traitsIcEENS_9allocatorIcEEEEP11SDL_TextureEENS_22__unordered_map_hasherIS7_SA_NS_4hashIS7_EENS_8equal_toIS7_EELb1EEENS_21__unordered_map_equalIS7_SA_SF_SD_Lb1EEENS5_ISA_EEE11__do_rehashILb1EEEvm, symObjAddr: 0x4F20, symBinAddr: 0x10000C55C, symSize: 0x288 }
  - { offset: 0x2E897, size: 0x8, addend: 0x0, symName: __ZNSt3__110unique_ptrIA_PNS_16__hash_node_baseIPNS_11__hash_nodeINS_17__hash_value_typeINS_12basic_stringIcNS_11char_traitsIcEENS_9allocatorIcEEEEP11SDL_TextureEEPvEEEENS_25__bucket_list_deallocatorINS7_ISH_EEEEE11get_deleterB8ne180100Ev, symObjAddr: 0x5214, symBinAddr: 0x10000C850, symSize: 0x24 }
  - { offset: 0x2E8BB, size: 0x8, addend: 0x0, symName: __ZNSt3__125__bucket_list_deallocatorINS_9allocatorIPNS_16__hash_node_baseIPNS_11__hash_nodeINS_17__hash_value_typeINS_12basic_stringIcNS_11char_traitsIcEENS1_IcEEEEP11SDL_TextureEEPvEEEEEEE7__allocB8ne180100Ev, symObjAddr: 0x5238, symBinAddr: 0x10000C874, symSize: 0x24 }
  - { offset: 0x2E8DF, size: 0x8, addend: 0x0, symName: __ZNSt3__110unique_ptrIA_PNS_16__hash_node_baseIPNS_11__hash_nodeINS_17__hash_value_typeINS_12basic_stringIcNS_11char_traitsIcEENS_9allocatorIcEEEEP11SDL_TextureEEPvEEEENS_25__bucket_list_deallocatorINS7_ISH_EEEEE5resetB8ne180100IPSH_Li0EEEvT_, symObjAddr: 0x525C, symBinAddr: 0x10000C898, symSize: 0x78 }
  - { offset: 0x2E930, size: 0x8, addend: 0x0, symName: __ZNSt3__116allocator_traitsINS_9allocatorIPNS_16__hash_node_baseIPNS_11__hash_nodeINS_17__hash_value_typeINS_12basic_stringIcNS_11char_traitsIcEENS1_IcEEEEP11SDL_TextureEEPvEEEEEEE8allocateB8ne180100ERSI_m, symObjAddr: 0x52D4, symBinAddr: 0x10000C910, symSize: 0x2C }
  - { offset: 0x2E962, size: 0x8, addend: 0x0, symName: __ZNSt3__125__bucket_list_deallocatorINS_9allocatorIPNS_16__hash_node_baseIPNS_11__hash_nodeINS_17__hash_value_typeINS_12basic_stringIcNS_11char_traitsIcEENS1_IcEEEEP11SDL_TextureEEPvEEEEEEE4sizeB8ne180100Ev, symObjAddr: 0x5300, symBinAddr: 0x10000C93C, symSize: 0x24 }
  - { offset: 0x2E986, size: 0x8, addend: 0x0, symName: __ZNSt3__117__compressed_pairINS_16__hash_node_baseIPNS_11__hash_nodeINS_17__hash_value_typeINS_12basic_stringIcNS_11char_traitsIcEENS_9allocatorIcEEEEP11SDL_TextureEEPvEEEENS7_ISE_EEE5firstB8ne180100Ev, symObjAddr: 0x5324, symBinAddr: 0x10000C960, symSize: 0x24 }
  - { offset: 0x2E9AA, size: 0x8, addend: 0x0, symName: __ZNSt3__117__compressed_pairIPPNS_16__hash_node_baseIPNS_11__hash_nodeINS_17__hash_value_typeINS_12basic_stringIcNS_11char_traitsIcEENS_9allocatorIcEEEEP11SDL_TextureEEPvEEEENS_25__bucket_list_deallocatorINS7_ISH_EEEEE6secondB8ne180100Ev, symObjAddr: 0x5348, symBinAddr: 0x10000C984, symSize: 0x28 }
  - { offset: 0x2E9CE, size: 0x8, addend: 0x0, symName: __ZNSt3__122__compressed_pair_elemINS_25__bucket_list_deallocatorINS_9allocatorIPNS_16__hash_node_baseIPNS_11__hash_nodeINS_17__hash_value_typeINS_12basic_stringIcNS_11char_traitsIcEENS2_IcEEEEP11SDL_TextureEEPvEEEEEEEELi1ELb0EE5__getB8ne180100Ev, symObjAddr: 0x5370, symBinAddr: 0x10000C9AC, symSize: 0x14 }
  - { offset: 0x2E9F2, size: 0x8, addend: 0x0, symName: __ZNSt3__117__compressed_pairImNS_9allocatorIPNS_16__hash_node_baseIPNS_11__hash_nodeINS_17__hash_value_typeINS_12basic_stringIcNS_11char_traitsIcEENS1_IcEEEEP11SDL_TextureEEPvEEEEEEE6secondB8ne180100Ev, symObjAddr: 0x5384, symBinAddr: 0x10000C9C0, symSize: 0x24 }
  - { offset: 0x2EA16, size: 0x8, addend: 0x0, symName: __ZNSt3__122__compressed_pair_elemINS_9allocatorIPNS_16__hash_node_baseIPNS_11__hash_nodeINS_17__hash_value_typeINS_12basic_stringIcNS_11char_traitsIcEENS1_IcEEEEP11SDL_TextureEEPvEEEEEELi1ELb1EE5__getB8ne180100Ev, symObjAddr: 0x53A8, symBinAddr: 0x10000C9E4, symSize: 0x14 }
  - { offset: 0x2EA3A, size: 0x8, addend: 0x0, symName: __ZNSt3__117__compressed_pairIPPNS_16__hash_node_baseIPNS_11__hash_nodeINS_17__hash_value_typeINS_12basic_stringIcNS_11char_traitsIcEENS_9allocatorIcEEEEP11SDL_TextureEEPvEEEENS_25__bucket_list_deallocatorINS7_ISH_EEEEE5firstB8ne180100Ev, symObjAddr: 0x53BC, symBinAddr: 0x10000C9F8, symSize: 0x24 }
  - { offset: 0x2EA5E, size: 0x8, addend: 0x0, symName: __ZNSt3__125__bucket_list_deallocatorINS_9allocatorIPNS_16__hash_node_baseIPNS_11__hash_nodeINS_17__hash_value_typeINS_12basic_stringIcNS_11char_traitsIcEENS1_IcEEEEP11SDL_TextureEEPvEEEEEEEclB8ne180100EPSH_, symObjAddr: 0x53E0, symBinAddr: 0x10000CA1C, symSize: 0x58 }
  - { offset: 0x2EA91, size: 0x8, addend: 0x0, symName: __ZNSt3__122__compressed_pair_elemIPPNS_16__hash_node_baseIPNS_11__hash_nodeINS_17__hash_value_typeINS_12basic_stringIcNS_11char_traitsIcEENS_9allocatorIcEEEEP11SDL_TextureEEPvEEEELi0ELb0EE5__getB8ne180100Ev, symObjAddr: 0x5438, symBinAddr: 0x10000CA74, symSize: 0x14 }
  - { offset: 0x2EAB5, size: 0x8, addend: 0x0, symName: __ZNSt3__116allocator_traitsINS_9allocatorIPNS_16__hash_node_baseIPNS_11__hash_nodeINS_17__hash_value_typeINS_12basic_stringIcNS_11char_traitsIcEENS1_IcEEEEP11SDL_TextureEEPvEEEEEEE10deallocateB8ne180100ERSI_PSH_m, symObjAddr: 0x544C, symBinAddr: 0x10000CA88, symSize: 0x34 }
  - { offset: 0x2EAF6, size: 0x8, addend: 0x0, symName: __ZNSt3__19allocatorIPNS_16__hash_node_baseIPNS_11__hash_nodeINS_17__hash_value_typeINS_12basic_stringIcNS_11char_traitsIcEENS0_IcEEEEP11SDL_TextureEEPvEEEEE10deallocateB8ne180100EPSG_m, symObjAddr: 0x5480, symBinAddr: 0x10000CABC, symSize: 0x40 }
  - { offset: 0x2EB36, size: 0x8, addend: 0x0, symName: __ZNSt3__19allocatorIPNS_16__hash_node_baseIPNS_11__hash_nodeINS_17__hash_value_typeINS_12basic_stringIcNS_11char_traitsIcEENS0_IcEEEEP11SDL_TextureEEPvEEEEE8allocateB8ne180100Em, symObjAddr: 0x55C8, symBinAddr: 0x10000CAFC, symSize: 0x58 }
  - { offset: 0x2EB72, size: 0x8, addend: 0x0, symName: __ZNSt3__116allocator_traitsINS_9allocatorIPNS_16__hash_node_baseIPNS_11__hash_nodeINS_17__hash_value_typeINS_12basic_stringIcNS_11char_traitsIcEENS1_IcEEEEP11SDL_TextureEEPvEEEEEEE8max_sizeB8ne180100ISI_vEEmRKSI_, symObjAddr: 0x5620, symBinAddr: 0x10000CB54, symSize: 0x24 }
  - { offset: 0x2EB9F, size: 0x8, addend: 0x0, symName: __ZNKSt3__19allocatorIPNS_16__hash_node_baseIPNS_11__hash_nodeINS_17__hash_value_typeINS_12basic_stringIcNS_11char_traitsIcEENS0_IcEEEEP11SDL_TextureEEPvEEEEE8max_sizeB8ne180100Ev, symObjAddr: 0x5644, symBinAddr: 0x10000CB78, symSize: 0x14 }
  - { offset: 0x2EBC3, size: 0x8, addend: 0x0, symName: __ZNSt3__117__compressed_pairImNS_9allocatorIPNS_16__hash_node_baseIPNS_11__hash_nodeINS_17__hash_value_typeINS_12basic_stringIcNS_11char_traitsIcEENS1_IcEEEEP11SDL_TextureEEPvEEEEEEE5firstB8ne180100Ev, symObjAddr: 0x5658, symBinAddr: 0x10000CB8C, symSize: 0x24 }
  - { offset: 0x2EBE7, size: 0x8, addend: 0x0, symName: __ZNSt3__122__compressed_pair_elemINS_16__hash_node_baseIPNS_11__hash_nodeINS_17__hash_value_typeINS_12basic_stringIcNS_11char_traitsIcEENS_9allocatorIcEEEEP11SDL_TextureEEPvEEEELi0ELb0EE5__getB8ne180100Ev, symObjAddr: 0x567C, symBinAddr: 0x10000CBB0, symSize: 0x14 }
  - { offset: 0x2EC0B, size: 0x8, addend: 0x0, symName: __ZNSt3__14pairINS_15__hash_iteratorIPNS_11__hash_nodeINS_17__hash_value_typeINS_12basic_stringIcNS_11char_traitsIcEENS_9allocatorIcEEEEP11SDL_TextureEEPvEEEEbEC2B8ne180100ISG_RbLi0EEEOT_OT0_, symObjAddr: 0x5734, symBinAddr: 0x10000CBE0, symSize: 0x38 }
  - { offset: 0x2EC67, size: 0x8, addend: 0x0, symName: __ZNSt3__117__compressed_pairIPNS_11__hash_nodeINS_17__hash_value_typeINS_12basic_stringIcNS_11char_traitsIcEENS_9allocatorIcEEEEP11SDL_TextureEEPvEENS_22__hash_node_destructorINS6_ISD_EEEEE5firstB8ne180100Ev, symObjAddr: 0x576C, symBinAddr: 0x10000CC18, symSize: 0x24 }
  - { offset: 0x2EC8B, size: 0x8, addend: 0x0, symName: __ZNSt3__122__compressed_pair_elemIPNS_11__hash_nodeINS_17__hash_value_typeINS_12basic_stringIcNS_11char_traitsIcEENS_9allocatorIcEEEEP11SDL_TextureEEPvEELi0ELb0EE5__getB8ne180100Ev, symObjAddr: 0x5790, symBinAddr: 0x10000CC3C, symSize: 0x14 }
  - { offset: 0x2ECAF, size: 0x8, addend: 0x0, symName: __ZNSt3__110unique_ptrINS_11__hash_nodeINS_17__hash_value_typeINS_12basic_stringIcNS_11char_traitsIcEENS_9allocatorIcEEEEP11SDL_TextureEEPvEENS_22__hash_node_destructorINS6_ISD_EEEEED2B8ne180100Ev, symObjAddr: 0x57A4, symBinAddr: 0x10000CC50, symSize: 0x30 }
  - { offset: 0x2ECD7, size: 0x8, addend: 0x0, symName: __ZNSt3__110unique_ptrINS_11__hash_nodeINS_17__hash_value_typeINS_12basic_stringIcNS_11char_traitsIcEENS_9allocatorIcEEEEP11SDL_TextureEEPvEENS_22__hash_node_destructorINS6_ISD_EEEEE5resetB8ne180100EPSD_, symObjAddr: 0x57D4, symBinAddr: 0x10000CC80, symSize: 0x78 }
  - { offset: 0x2ED19, size: 0x8, addend: 0x0, symName: __ZNSt3__122__hash_node_destructorINS_9allocatorINS_11__hash_nodeINS_17__hash_value_typeINS_12basic_stringIcNS_11char_traitsIcEENS1_IcEEEEP11SDL_TextureEEPvEEEEEclB8ne180100EPSD_, symObjAddr: 0x584C, symBinAddr: 0x10000CCF8, symSize: 0x9C }
  - { offset: 0x2ED4C, size: 0x8, addend: 0x0, symName: __ZNSt3__116allocator_traitsINS_9allocatorINS_11__hash_nodeINS_17__hash_value_typeINS_12basic_stringIcNS_11char_traitsIcEENS1_IcEEEEP11SDL_TextureEEPvEEEEE7destroyB8ne180100INS_4pairIKS8_SA_EEvvEEvRSE_PT_, symObjAddr: 0x58E8, symBinAddr: 0x10000CD94, symSize: 0x28 }
  - { offset: 0x2ED85, size: 0x8, addend: 0x0, symName: __ZNSt3__116allocator_traitsINS_9allocatorINS_11__hash_nodeINS_17__hash_value_typeINS_12basic_stringIcNS_11char_traitsIcEENS1_IcEEEEP11SDL_TextureEEPvEEEEE10deallocateB8ne180100ERSE_PSD_m, symObjAddr: 0x5934, symBinAddr: 0x10000CDE0, symSize: 0x34 }
  - { offset: 0x2EDC6, size: 0x8, addend: 0x0, symName: __ZNSt3__14pairIKNS_12basic_stringIcNS_11char_traitsIcEENS_9allocatorIcEEEEP11SDL_TextureED1Ev, symObjAddr: 0x598C, symBinAddr: 0x10000CE38, symSize: 0x2C }
  - { offset: 0x2EDF0, size: 0x8, addend: 0x0, symName: __ZNSt3__14pairIKNS_12basic_stringIcNS_11char_traitsIcEENS_9allocatorIcEEEEP11SDL_TextureED2Ev, symObjAddr: 0x59B8, symBinAddr: 0x10000CE64, symSize: 0x2C }
  - { offset: 0x2EE1A, size: 0x8, addend: 0x0, symName: __ZNSt3__111__hash_nodeINS_17__hash_value_typeINS_12basic_stringIcNS_11char_traitsIcEENS_9allocatorIcEEEEP11SDL_TextureEEPvED1B8ne180100Ev, symObjAddr: 0x59E4, symBinAddr: 0x10000CE90, symSize: 0x2C }
  - { offset: 0x2EE42, size: 0x8, addend: 0x0, symName: __ZNSt3__111__hash_nodeINS_17__hash_value_typeINS_12basic_stringIcNS_11char_traitsIcEENS_9allocatorIcEEEEP11SDL_TextureEEPvED2B8ne180100Ev, symObjAddr: 0x5A10, symBinAddr: 0x10000CEBC, symSize: 0x14 }
  - { offset: 0x2EE6A, size: 0x8, addend: 0x0, symName: __ZNSt3__19allocatorINS_11__hash_nodeINS_17__hash_value_typeINS_12basic_stringIcNS_11char_traitsIcEENS0_IcEEEEP11SDL_TextureEEPvEEE10deallocateB8ne180100EPSC_m, symObjAddr: 0x5A24, symBinAddr: 0x10000CED0, symSize: 0x44 }
  - { offset: 0x2EEAA, size: 0x8, addend: 0x0, symName: __ZNSt3__14pairINS_19__hash_map_iteratorINS_15__hash_iteratorIPNS_11__hash_nodeINS_17__hash_value_typeINS_12basic_stringIcNS_11char_traitsIcEENS_9allocatorIcEEEEP11SDL_TextureEEPvEEEEEEbEC2B8ne180100ISH_bLi0EEEONS0_IT_T0_EE, symObjAddr: 0x5A68, symBinAddr: 0x10000CF14, symSize: 0x50 }
  - { offset: 0x2EEF8, size: 0x8, addend: 0x0, symName: __ZNSt3__16vectorIP5ActorNS_9allocatorIS2_EEE9__end_capB8ne180100Ev, symObjAddr: 0x5AB8, symBinAddr: 0x10000CF64, symSize: 0x28 }
  - { offset: 0x2EF1C, size: 0x8, addend: 0x0, symName: __ZNSt3__16vectorIP5ActorNS_9allocatorIS2_EEE22__construct_one_at_endB8ne180100IJRS2_EEEvDpOT_, symObjAddr: 0x5AE0, symBinAddr: 0x10000CF8C, symSize: 0x90 }
  - { offset: 0x2EF69, size: 0x8, addend: 0x0, symName: __ZNSt3__16vectorIP5ActorNS_9allocatorIS2_EEE24__emplace_back_slow_pathIJRS2_EEEPS2_DpOT_, symObjAddr: 0x5B70, symBinAddr: 0x10000D01C, symSize: 0xE8 }
  - { offset: 0x2EFC7, size: 0x8, addend: 0x0, symName: __ZNSt3__117__compressed_pairIPP5ActorNS_9allocatorIS2_EEE5firstB8ne180100Ev, symObjAddr: 0x5C58, symBinAddr: 0x10000D104, symSize: 0x24 }
  - { offset: 0x2EFEB, size: 0x8, addend: 0x0, symName: __ZNSt3__122__compressed_pair_elemIPP5ActorLi0ELb0EE5__getB8ne180100Ev, symObjAddr: 0x5C7C, symBinAddr: 0x10000D128, symSize: 0x14 }
  - { offset: 0x2F028, size: 0x8, addend: 0x0, symName: __ZNSt3__16vectorIP5ActorNS_9allocatorIS2_EEE21_ConstructTransactionC1B8ne180100ERS5_m, symObjAddr: 0x5C90, symBinAddr: 0x10000D13C, symSize: 0x3C }
  - { offset: 0x2F06E, size: 0x8, addend: 0x0, symName: __ZNSt3__116allocator_traitsINS_9allocatorIP5ActorEEE9constructB8ne180100IS3_JRS3_EvEEvRS4_PT_DpOT0_, symObjAddr: 0x5CCC, symBinAddr: 0x10000D178, symSize: 0x34 }
  - { offset: 0x2F0C4, size: 0x8, addend: 0x0, symName: __ZNSt3__16vectorIP5ActorNS_9allocatorIS2_EEE7__allocB8ne180100Ev, symObjAddr: 0x5D00, symBinAddr: 0x10000D1AC, symSize: 0x28 }
  - { offset: 0x2F0E8, size: 0x8, addend: 0x0, symName: __ZNSt3__16vectorIP5ActorNS_9allocatorIS2_EEE21_ConstructTransactionD1B8ne180100Ev, symObjAddr: 0x5D3C, symBinAddr: 0x10000D1E8, symSize: 0x2C }
  - { offset: 0x2F110, size: 0x8, addend: 0x0, symName: __ZNSt3__16vectorIP5ActorNS_9allocatorIS2_EEE21_ConstructTransactionC2B8ne180100ERS5_m, symObjAddr: 0x5D68, symBinAddr: 0x10000D214, symSize: 0x44 }
  - { offset: 0x2F156, size: 0x8, addend: 0x0, symName: __ZNSt3__19allocatorIP5ActorE9constructB8ne180100IS2_JRS2_EEEvPT_DpOT0_, symObjAddr: 0x5DAC, symBinAddr: 0x10000D258, symSize: 0x28 }
  - { offset: 0x2F1AA, size: 0x8, addend: 0x0, symName: __ZNSt3__117__compressed_pairIPP5ActorNS_9allocatorIS2_EEE6secondB8ne180100Ev, symObjAddr: 0x5DD4, symBinAddr: 0x10000D280, symSize: 0x24 }
  - { offset: 0x2F1CE, size: 0x8, addend: 0x0, symName: __ZNSt3__122__compressed_pair_elemINS_9allocatorIP5ActorEELi1ELb1EE5__getB8ne180100Ev, symObjAddr: 0x5DF8, symBinAddr: 0x10000D2A4, symSize: 0x14 }
  - { offset: 0x2F1F2, size: 0x8, addend: 0x0, symName: __ZNSt3__16vectorIP5ActorNS_9allocatorIS2_EEE21_ConstructTransactionD2B8ne180100Ev, symObjAddr: 0x5E0C, symBinAddr: 0x10000D2B8, symSize: 0x20 }
  - { offset: 0x2F21A, size: 0x8, addend: 0x0, symName: __ZNKSt3__16vectorIP5ActorNS_9allocatorIS2_EEE11__recommendB8ne180100Em, symObjAddr: 0x5E2C, symBinAddr: 0x10000D2D8, symSize: 0xB4 }
  - { offset: 0x2F26D, size: 0x8, addend: 0x0, symName: __ZNKSt3__16vectorIP5ActorNS_9allocatorIS2_EEE4sizeB8ne180100Ev, symObjAddr: 0x5EE0, symBinAddr: 0x10000D38C, symSize: 0x28 }
  - { offset: 0x2F292, size: 0x8, addend: 0x0, symName: __ZNSt3__114__split_bufferIP5ActorRNS_9allocatorIS2_EEEC1EmmS5_, symObjAddr: 0x5F08, symBinAddr: 0x10000D3B4, symSize: 0x44 }
  - { offset: 0x2F2E7, size: 0x8, addend: 0x0, symName: __ZNSt3__114__split_bufferIP5ActorRNS_9allocatorIS2_EEED1Ev, symObjAddr: 0x605C, symBinAddr: 0x10000D508, symSize: 0x2C }
  - { offset: 0x2F311, size: 0x8, addend: 0x0, symName: __ZNKSt3__16vectorIP5ActorNS_9allocatorIS2_EEE8max_sizeEv, symObjAddr: 0x6088, symBinAddr: 0x10000D534, symSize: 0x60 }
  - { offset: 0x2F337, size: 0x8, addend: 0x0, symName: __ZNKSt3__16vectorIP5ActorNS_9allocatorIS2_EEE20__throw_length_errorB8ne180100Ev, symObjAddr: 0x60E8, symBinAddr: 0x10000D594, symSize: 0x1C }
  - { offset: 0x2F35B, size: 0x8, addend: 0x0, symName: __ZNKSt3__16vectorIP5ActorNS_9allocatorIS2_EEE8capacityB8ne180100Ev, symObjAddr: 0x6104, symBinAddr: 0x10000D5B0, symSize: 0x40 }
  - { offset: 0x2F389, size: 0x8, addend: 0x0, symName: __ZNSt3__116allocator_traitsINS_9allocatorIP5ActorEEE8max_sizeB8ne180100IS4_vEEmRKS4_, symObjAddr: 0x6170, symBinAddr: 0x10000D5F0, symSize: 0x24 }
  - { offset: 0x2F3B6, size: 0x8, addend: 0x0, symName: __ZNKSt3__16vectorIP5ActorNS_9allocatorIS2_EEE7__allocB8ne180100Ev, symObjAddr: 0x6194, symBinAddr: 0x10000D614, symSize: 0x28 }
  - { offset: 0x2F3DA, size: 0x8, addend: 0x0, symName: __ZNKSt3__19allocatorIP5ActorE8max_sizeB8ne180100Ev, symObjAddr: 0x6224, symBinAddr: 0x10000D63C, symSize: 0x14 }
  - { offset: 0x2F3FE, size: 0x8, addend: 0x0, symName: __ZNKSt3__117__compressed_pairIPP5ActorNS_9allocatorIS2_EEE6secondB8ne180100Ev, symObjAddr: 0x6238, symBinAddr: 0x10000D650, symSize: 0x24 }
  - { offset: 0x2F422, size: 0x8, addend: 0x0, symName: __ZNKSt3__122__compressed_pair_elemINS_9allocatorIP5ActorEELi1ELb1EE5__getB8ne180100Ev, symObjAddr: 0x625C, symBinAddr: 0x10000D674, symSize: 0x14 }
  - { offset: 0x2F446, size: 0x8, addend: 0x0, symName: __ZNKSt3__16vectorIP5ActorNS_9allocatorIS2_EEE9__end_capB8ne180100Ev, symObjAddr: 0x6354, symBinAddr: 0x10000D688, symSize: 0x28 }
  - { offset: 0x2F46A, size: 0x8, addend: 0x0, symName: __ZNKSt3__117__compressed_pairIPP5ActorNS_9allocatorIS2_EEE5firstB8ne180100Ev, symObjAddr: 0x637C, symBinAddr: 0x10000D6B0, symSize: 0x24 }
  - { offset: 0x2F48E, size: 0x8, addend: 0x0, symName: __ZNKSt3__122__compressed_pair_elemIPP5ActorLi0ELb0EE5__getB8ne180100Ev, symObjAddr: 0x63A0, symBinAddr: 0x10000D6D4, symSize: 0x14 }
  - { offset: 0x2F4B3, size: 0x8, addend: 0x0, symName: __ZNSt3__114__split_bufferIP5ActorRNS_9allocatorIS2_EEEC2EmmS5_, symObjAddr: 0x63B4, symBinAddr: 0x10000D6E8, symSize: 0xD4 }
  - { offset: 0x2F524, size: 0x8, addend: 0x0, symName: __ZNSt3__117__compressed_pairIPP5ActorRNS_9allocatorIS2_EEEC1B8ne180100IDnS6_EEOT_OT0_, symObjAddr: 0x6488, symBinAddr: 0x10000D7BC, symSize: 0x3C }
  - { offset: 0x2F57A, size: 0x8, addend: 0x0, symName: __ZNSt3__114__split_bufferIP5ActorRNS_9allocatorIS2_EEE7__allocB8ne180100Ev, symObjAddr: 0x6504, symBinAddr: 0x10000D838, symSize: 0x28 }
  - { offset: 0x2F59E, size: 0x8, addend: 0x0, symName: __ZNSt3__114__split_bufferIP5ActorRNS_9allocatorIS2_EEE9__end_capB8ne180100Ev, symObjAddr: 0x652C, symBinAddr: 0x10000D860, symSize: 0x28 }
  - { offset: 0x2F5C2, size: 0x8, addend: 0x0, symName: __ZNSt3__117__compressed_pairIPP5ActorRNS_9allocatorIS2_EEEC2B8ne180100IDnS6_EEOT_OT0_, symObjAddr: 0x6554, symBinAddr: 0x10000D888, symSize: 0x48 }
  - { offset: 0x2F618, size: 0x8, addend: 0x0, symName: __ZNSt3__122__compressed_pair_elemIRNS_9allocatorIP5ActorEELi1ELb0EEC2B8ne180100IS5_vEEOT_, symObjAddr: 0x659C, symBinAddr: 0x10000D8D0, symSize: 0x20 }
  - { offset: 0x2F658, size: 0x8, addend: 0x0, symName: __ZNSt3__19allocatorIP5ActorE8allocateB8ne180100Em, symObjAddr: 0x65BC, symBinAddr: 0x10000D8F0, symSize: 0x58 }
  - { offset: 0x2F68A, size: 0x8, addend: 0x0, symName: __ZNSt3__117__compressed_pairIPP5ActorRNS_9allocatorIS2_EEE6secondB8ne180100Ev, symObjAddr: 0x6614, symBinAddr: 0x10000D948, symSize: 0x28 }
  - { offset: 0x2F6AE, size: 0x8, addend: 0x0, symName: __ZNSt3__122__compressed_pair_elemIRNS_9allocatorIP5ActorEELi1ELb0EE5__getB8ne180100Ev, symObjAddr: 0x663C, symBinAddr: 0x10000D970, symSize: 0x18 }
  - { offset: 0x2F6D2, size: 0x8, addend: 0x0, symName: __ZNSt3__117__compressed_pairIPP5ActorRNS_9allocatorIS2_EEE5firstB8ne180100Ev, symObjAddr: 0x6654, symBinAddr: 0x10000D988, symSize: 0x24 }
  - { offset: 0x2F6F6, size: 0x8, addend: 0x0, symName: __ZNKSt3__16vectorIP5ActorNS_9allocatorIS2_EEE17__annotate_deleteB8ne180100Ev, symObjAddr: 0x6678, symBinAddr: 0x10000D9AC, symSize: 0x10 }
  - { offset: 0x2F71A, size: 0x8, addend: 0x0, symName: __ZNSt3__116reverse_iteratorIPP5ActorEC1B8ne180100ES3_, symObjAddr: 0x6700, symBinAddr: 0x10000DA34, symSize: 0x34 }
  - { offset: 0x2F750, size: 0x8, addend: 0x0, symName: __ZNKSt3__116reverse_iteratorIPP5ActorE4baseB8ne180100Ev, symObjAddr: 0x6734, symBinAddr: 0x10000DA68, symSize: 0x18 }
  - { offset: 0x2F774, size: 0x8, addend: 0x0, symName: __ZNKSt3__16vectorIP5ActorNS_9allocatorIS2_EEE14__annotate_newB8ne180100Em, symObjAddr: 0x6788, symBinAddr: 0x10000DABC, symSize: 0x14 }
  - { offset: 0x2F7CA, size: 0x8, addend: 0x0, symName: __ZNKSt3__111__move_loopINS_17_ClassicAlgPolicyEEclB8ne180100INS_16reverse_iteratorIPP5ActorEES8_S8_EENS_4pairIT_T1_EESA_T0_SB_, symObjAddr: 0x6A8C, symBinAddr: 0x10000DDC0, symSize: 0xA0 }
  - { offset: 0x2F838, size: 0x8, addend: 0x0, symName: __ZNSt3__18_IterOpsINS_17_ClassicAlgPolicyEE11__iter_moveB8ne180100IRNS_16reverse_iteratorIPP5ActorEELi0EEEDTclsr3stdE4movedeclsr3stdE7declvalIRT_EEEEOSA_, symObjAddr: 0x6CC0, symBinAddr: 0x10000DFF4, symSize: 0x28 }
  - { offset: 0x2F869, size: 0x8, addend: 0x0, symName: __ZNKSt3__116reverse_iteratorIPP5ActorEdeB8ne180100Ev, symObjAddr: 0x6CE8, symBinAddr: 0x10000E01C, symSize: 0x28 }
  - { offset: 0x2F89B, size: 0x8, addend: 0x0, symName: __ZNSt3__116reverse_iteratorIPP5ActorEppB8ne180100Ev, symObjAddr: 0x6D10, symBinAddr: 0x10000E044, symSize: 0x20 }
  - { offset: 0x2F8BF, size: 0x8, addend: 0x0, symName: __ZNSt3__18_IterOpsINS_17_ClassicAlgPolicyEE25__validate_iter_referenceB8ne180100IRNS_16reverse_iteratorIPP5ActorEEEEvv, symObjAddr: 0x6D30, symBinAddr: 0x10000E064, symSize: 0x4 }
  - { offset: 0x2F8DC, size: 0x8, addend: 0x0, symName: __ZNSt3__118__unwrap_iter_implINS_16reverse_iteratorIPP5ActorEELb0EE8__unwrapB8ne180100ES5_, symObjAddr: 0x6D34, symBinAddr: 0x10000E068, symSize: 0x24 }
  - { offset: 0x2F903, size: 0x8, addend: 0x0, symName: __ZNSt3__14pairINS_16reverse_iteratorIPP5ActorEES5_EC1B8ne180100IS5_S5_Li0EEEOT_OT0_, symObjAddr: 0x6D58, symBinAddr: 0x10000E08C, symSize: 0x3C }
  - { offset: 0x2F95F, size: 0x8, addend: 0x0, symName: __ZNSt3__14pairINS_16reverse_iteratorIPP5ActorEES5_EC2B8ne180100IS5_S5_Li0EEEOT_OT0_, symObjAddr: 0x6D94, symBinAddr: 0x10000E0C8, symSize: 0x34 }
  - { offset: 0x2F9BB, size: 0x8, addend: 0x0, symName: __ZNSt3__118__unwrap_iter_implINS_16reverse_iteratorIPP5ActorEELb0EE8__rewrapB8ne180100ES5_S5_, symObjAddr: 0x6DC8, symBinAddr: 0x10000E0FC, symSize: 0x2C }
  - { offset: 0x2F9E7, size: 0x8, addend: 0x0, symName: __ZNSt3__116reverse_iteratorIPP5ActorEC2B8ne180100ES3_, symObjAddr: 0x6DF4, symBinAddr: 0x10000E128, symSize: 0x28 }
  - { offset: 0x2FA1E, size: 0x8, addend: 0x0, symName: __ZNSt3__114__split_bufferIP5ActorRNS_9allocatorIS2_EEED2Ev, symObjAddr: 0x6E1C, symBinAddr: 0x10000E150, symSize: 0x8C }
  - { offset: 0x2FA48, size: 0x8, addend: 0x0, symName: __ZNSt3__114__split_bufferIP5ActorRNS_9allocatorIS2_EEE5clearB8ne180100Ev, symObjAddr: 0x6EA8, symBinAddr: 0x10000E1DC, symSize: 0x28 }
  - { offset: 0x2FA6C, size: 0x8, addend: 0x0, symName: __ZNSt3__116allocator_traitsINS_9allocatorIP5ActorEEE10deallocateB8ne180100ERS4_PS3_m, symObjAddr: 0x6ED0, symBinAddr: 0x10000E204, symSize: 0x34 }
  - { offset: 0x2FAAD, size: 0x8, addend: 0x0, symName: __ZNKSt3__114__split_bufferIP5ActorRNS_9allocatorIS2_EEE8capacityB8ne180100Ev, symObjAddr: 0x6F04, symBinAddr: 0x10000E238, symSize: 0x40 }
  - { offset: 0x2FAD1, size: 0x8, addend: 0x0, symName: __ZNSt3__114__split_bufferIP5ActorRNS_9allocatorIS2_EEE17__destruct_at_endB8ne180100EPS2_, symObjAddr: 0x6F44, symBinAddr: 0x10000E278, symSize: 0x2C }
  - { offset: 0x2FB03, size: 0x8, addend: 0x0, symName: __ZNSt3__114__split_bufferIP5ActorRNS_9allocatorIS2_EEE17__destruct_at_endB8ne180100EPS2_NS_17integral_constantIbLb0EEE, symObjAddr: 0x6F70, symBinAddr: 0x10000E2A4, symSize: 0x80 }
  - { offset: 0x2FB41, size: 0x8, addend: 0x0, symName: __ZNSt3__116allocator_traitsINS_9allocatorIP5ActorEEE7destroyB8ne180100IS3_vEEvRS4_PT_, symObjAddr: 0x6FF0, symBinAddr: 0x10000E324, symSize: 0x2C }
  - { offset: 0x2FB7D, size: 0x8, addend: 0x0, symName: __ZNSt3__19allocatorIP5ActorE7destroyB8ne180100EPS2_, symObjAddr: 0x701C, symBinAddr: 0x10000E350, symSize: 0x14 }
  - { offset: 0x2FBAF, size: 0x8, addend: 0x0, symName: __ZNSt3__19allocatorIP5ActorE10deallocateB8ne180100EPS2_m, symObjAddr: 0x7030, symBinAddr: 0x10000E364, symSize: 0x40 }
  - { offset: 0x2FBEF, size: 0x8, addend: 0x0, symName: __ZNKSt3__114__split_bufferIP5ActorRNS_9allocatorIS2_EEE9__end_capB8ne180100Ev, symObjAddr: 0x7070, symBinAddr: 0x10000E3A4, symSize: 0x28 }
  - { offset: 0x2FC13, size: 0x8, addend: 0x0, symName: __ZNKSt3__117__compressed_pairIPP5ActorRNS_9allocatorIS2_EEE5firstB8ne180100Ev, symObjAddr: 0x7098, symBinAddr: 0x10000E3CC, symSize: 0x24 }
  - { offset: 0x2FC37, size: 0x8, addend: 0x0, symName: __ZNSt3__118__unwrap_iter_implINS_11__wrap_iterIPP5ActorEELb1EE8__rewrapB8ne180100ES5_S4_, symObjAddr: 0x71BC, symBinAddr: 0x10000E4F0, symSize: 0x5C }
  - { offset: 0x2FC71, size: 0x8, addend: 0x0, symName: __ZNSt3__119__to_address_helperINS_11__wrap_iterIPP5ActorEEvE6__callB8ne180100ERKS5_, symObjAddr: 0x723C, symBinAddr: 0x10000E570, symSize: 0x30 }
  - { offset: 0x2FC93, size: 0x8, addend: 0x0, symName: __ZNSt3__114pointer_traitsINS_11__wrap_iterIPP5ActorEEE10to_addressB8ne180100ES5_, symObjAddr: 0x726C, symBinAddr: 0x10000E5A0, symSize: 0x2C }
  - { offset: 0x2FCBF, size: 0x8, addend: 0x0, symName: __ZNKSt3__110__identityclB8ne180100IRP5ActorEEOT_S6_, symObjAddr: 0x72C4, symBinAddr: 0x10000E5F8, symSize: 0x18 }
  - { offset: 0x2FCFA, size: 0x8, addend: 0x0, symName: __ZNSt3__118__unwrap_iter_implINS_11__wrap_iterIPP5ActorEELb1EE8__unwrapB8ne180100ES5_, symObjAddr: 0x72DC, symBinAddr: 0x10000E610, symSize: 0x28 }
  - { offset: 0x2FD1C, size: 0x8, addend: 0x0, symName: __ZNSt3__16vectorIP5ActorNS_9allocatorIS2_EEE17__destruct_at_endB8ne180100EPS2_, symObjAddr: 0x7340, symBinAddr: 0x10000E674, symSize: 0x4C }
  - { offset: 0x2FD5E, size: 0x8, addend: 0x0, symName: __ZNSt3__16vectorIP5ActorNS_9allocatorIS2_EEE22__base_destruct_at_endB8ne180100EPS2_, symObjAddr: 0x738C, symBinAddr: 0x10000E6C0, symSize: 0x8C }
  - { offset: 0x2FDA0, size: 0x8, addend: 0x0, symName: __ZNKSt3__16vectorIP5ActorNS_9allocatorIS2_EEE17__annotate_shrinkB8ne180100Em, symObjAddr: 0x7418, symBinAddr: 0x10000E74C, symSize: 0x14 }
  - { offset: 0x2FDD3, size: 0x8, addend: 0x0, symName: __ZNSt3__16vectorIP15SpriteComponentNS_9allocatorIS2_EEE9__end_capB8ne180100Ev, symObjAddr: 0x7474, symBinAddr: 0x10000E7A8, symSize: 0x28 }
  - { offset: 0x2FDF7, size: 0x8, addend: 0x0, symName: __ZNSt3__16vectorIP15SpriteComponentNS_9allocatorIS2_EEE22__construct_one_at_endB8ne180100IJRKS2_EEEvDpOT_, symObjAddr: 0x749C, symBinAddr: 0x10000E7D0, symSize: 0x90 }
  - { offset: 0x2FE44, size: 0x8, addend: 0x0, symName: __ZNSt3__16vectorIP15SpriteComponentNS_9allocatorIS2_EEE12__move_rangeEPS2_S6_S6_, symObjAddr: 0x752C, symBinAddr: 0x10000E860, symSize: 0x12C }
  - { offset: 0x2FEFE, size: 0x8, addend: 0x0, symName: __ZNSt3__114pointer_traitsIPKP15SpriteComponentE10pointer_toB8ne180100ERS3_, symObjAddr: 0x7658, symBinAddr: 0x10000E98C, symSize: 0x14 }
  - { offset: 0x2FF20, size: 0x8, addend: 0x0, symName: __ZNSt3__16vectorIP15SpriteComponentNS_9allocatorIS2_EEE7__allocB8ne180100Ev, symObjAddr: 0x766C, symBinAddr: 0x10000E9A0, symSize: 0x28 }
  - { offset: 0x2FF44, size: 0x8, addend: 0x0, symName: __ZNKSt3__16vectorIP15SpriteComponentNS_9allocatorIS2_EEE11__recommendB8ne180100Em, symObjAddr: 0x7694, symBinAddr: 0x10000E9C8, symSize: 0xB4 }
  - { offset: 0x2FF97, size: 0x8, addend: 0x0, symName: __ZNKSt3__16vectorIP15SpriteComponentNS_9allocatorIS2_EEE4sizeB8ne180100Ev, symObjAddr: 0x7748, symBinAddr: 0x10000EA7C, symSize: 0x28 }
  - { offset: 0x2FFBC, size: 0x8, addend: 0x0, symName: __ZNSt3__114__split_bufferIP15SpriteComponentRNS_9allocatorIS2_EEEC1EmmS5_, symObjAddr: 0x7770, symBinAddr: 0x10000EAA4, symSize: 0x44 }
  - { offset: 0x30010, size: 0x8, addend: 0x0, symName: __ZNSt3__114__split_bufferIP15SpriteComponentRNS_9allocatorIS2_EEE9push_backB8ne180100ERKS2_, symObjAddr: 0x77B4, symBinAddr: 0x10000EAE8, symSize: 0x260 }
  - { offset: 0x30087, size: 0x8, addend: 0x0, symName: __ZNSt3__114__split_bufferIP15SpriteComponentRNS_9allocatorIS2_EEED1Ev, symObjAddr: 0x7B60, symBinAddr: 0x10000EE94, symSize: 0x2C }
  - { offset: 0x300B1, size: 0x8, addend: 0x0, symName: __ZNKSt3__111__wrap_iterIPKP15SpriteComponentE4baseB8ne180100Ev, symObjAddr: 0x7B8C, symBinAddr: 0x10000EEC0, symSize: 0x18 }
  - { offset: 0x300D5, size: 0x8, addend: 0x0, symName: __ZNSt3__117__compressed_pairIPP15SpriteComponentNS_9allocatorIS2_EEE5firstB8ne180100Ev, symObjAddr: 0x7BA4, symBinAddr: 0x10000EED8, symSize: 0x24 }
  - { offset: 0x300F9, size: 0x8, addend: 0x0, symName: __ZNSt3__122__compressed_pair_elemIPP15SpriteComponentLi0ELb0EE5__getB8ne180100Ev, symObjAddr: 0x7BC8, symBinAddr: 0x10000EEFC, symSize: 0x14 }
  - { offset: 0x30136, size: 0x8, addend: 0x0, symName: __ZNSt3__16vectorIP15SpriteComponentNS_9allocatorIS2_EEE21_ConstructTransactionC1B8ne180100ERS5_m, symObjAddr: 0x7BDC, symBinAddr: 0x10000EF10, symSize: 0x3C }
  - { offset: 0x3017C, size: 0x8, addend: 0x0, symName: __ZNSt3__116allocator_traitsINS_9allocatorIP15SpriteComponentEEE9constructB8ne180100IS3_JRKS3_EvEEvRS4_PT_DpOT0_, symObjAddr: 0x7C18, symBinAddr: 0x10000EF4C, symSize: 0x34 }
  - { offset: 0x301D2, size: 0x8, addend: 0x0, symName: __ZNSt3__16vectorIP15SpriteComponentNS_9allocatorIS2_EEE21_ConstructTransactionD1B8ne180100Ev, symObjAddr: 0x7C60, symBinAddr: 0x10000EF94, symSize: 0x2C }
  - { offset: 0x301FA, size: 0x8, addend: 0x0, symName: __ZNSt3__16vectorIP15SpriteComponentNS_9allocatorIS2_EEE21_ConstructTransactionC2B8ne180100ERS5_m, symObjAddr: 0x7C8C, symBinAddr: 0x10000EFC0, symSize: 0x44 }
  - { offset: 0x30240, size: 0x8, addend: 0x0, symName: __ZNSt3__19allocatorIP15SpriteComponentE9constructB8ne180100IS2_JRKS2_EEEvPT_DpOT0_, symObjAddr: 0x7CD0, symBinAddr: 0x10000F004, symSize: 0x28 }
  - { offset: 0x30294, size: 0x8, addend: 0x0, symName: __ZNSt3__16vectorIP15SpriteComponentNS_9allocatorIS2_EEE21_ConstructTransactionD2B8ne180100Ev, symObjAddr: 0x7CF8, symBinAddr: 0x10000F02C, symSize: 0x20 }
  - { offset: 0x302BC, size: 0x8, addend: 0x0, symName: __ZNSt3__116allocator_traitsINS_9allocatorIP15SpriteComponentEEE9constructB8ne180100IS3_JS3_EvEEvRS4_PT_DpOT0_, symObjAddr: 0x7D18, symBinAddr: 0x10000F04C, symSize: 0x34 }
  - { offset: 0x30312, size: 0x8, addend: 0x0, symName: __ZNSt3__19allocatorIP15SpriteComponentE9constructB8ne180100IS2_JS2_EEEvPT_DpOT0_, symObjAddr: 0x7D8C, symBinAddr: 0x10000F0C0, symSize: 0x28 }
  - { offset: 0x30389, size: 0x8, addend: 0x0, symName: __ZNKSt3__123__move_backward_trivialclB8ne180100IP15SpriteComponentS3_Li0EEENS_4pairIPT_PT0_EES6_S6_S8_, symObjAddr: 0x7F50, symBinAddr: 0x10000F284, symSize: 0x48 }
  - { offset: 0x303EF, size: 0x8, addend: 0x0, symName: __ZNSt3__14pairIPP15SpriteComponentS3_EC1B8ne180100IRS3_S6_Li0EEEOT_OT0_, symObjAddr: 0x8188, symBinAddr: 0x10000F4BC, symSize: 0x3C }
  - { offset: 0x3044B, size: 0x8, addend: 0x0, symName: __ZNSt3__14pairIPP15SpriteComponentS3_EC2B8ne180100IRS3_S6_Li0EEEOT_OT0_, symObjAddr: 0x81C4, symBinAddr: 0x10000F4F8, symSize: 0x34 }
  - { offset: 0x304A7, size: 0x8, addend: 0x0, symName: __ZNSt3__118__unwrap_iter_implIPP15SpriteComponentLb1EE8__unwrapB8ne180100ES3_, symObjAddr: 0x81F8, symBinAddr: 0x10000F52C, symSize: 0x24 }
  - { offset: 0x304CE, size: 0x8, addend: 0x0, symName: __ZNSt3__14pairIPP15SpriteComponentS3_EC1B8ne180100IS3_S3_Li0EEEOT_OT0_, symObjAddr: 0x821C, symBinAddr: 0x10000F550, symSize: 0x3C }
  - { offset: 0x3052A, size: 0x8, addend: 0x0, symName: __ZNSt3__14pairIPP15SpriteComponentS3_EC2B8ne180100IS3_S3_Li0EEEOT_OT0_, symObjAddr: 0x8258, symBinAddr: 0x10000F58C, symSize: 0x34 }
  - { offset: 0x30586, size: 0x8, addend: 0x0, symName: __ZNSt3__118__unwrap_iter_implIPP15SpriteComponentLb1EE8__rewrapB8ne180100ES3_S3_, symObjAddr: 0x828C, symBinAddr: 0x10000F5C0, symSize: 0x50 }
  - { offset: 0x305B6, size: 0x8, addend: 0x0, symName: __ZNSt3__117__compressed_pairIPP15SpriteComponentNS_9allocatorIS2_EEE6secondB8ne180100Ev, symObjAddr: 0x82DC, symBinAddr: 0x10000F610, symSize: 0x24 }
  - { offset: 0x305DA, size: 0x8, addend: 0x0, symName: __ZNSt3__122__compressed_pair_elemINS_9allocatorIP15SpriteComponentEELi1ELb1EE5__getB8ne180100Ev, symObjAddr: 0x8300, symBinAddr: 0x10000F634, symSize: 0x14 }
  - { offset: 0x305FE, size: 0x8, addend: 0x0, symName: __ZNKSt3__16vectorIP15SpriteComponentNS_9allocatorIS2_EEE8max_sizeEv, symObjAddr: 0x8314, symBinAddr: 0x10000F648, symSize: 0x60 }
  - { offset: 0x30624, size: 0x8, addend: 0x0, symName: __ZNKSt3__16vectorIP15SpriteComponentNS_9allocatorIS2_EEE20__throw_length_errorB8ne180100Ev, symObjAddr: 0x8374, symBinAddr: 0x10000F6A8, symSize: 0x1C }
  - { offset: 0x30648, size: 0x8, addend: 0x0, symName: __ZNKSt3__16vectorIP15SpriteComponentNS_9allocatorIS2_EEE8capacityB8ne180100Ev, symObjAddr: 0x8390, symBinAddr: 0x10000F6C4, symSize: 0x40 }
  - { offset: 0x30676, size: 0x8, addend: 0x0, symName: __ZNSt3__116allocator_traitsINS_9allocatorIP15SpriteComponentEEE8max_sizeB8ne180100IS4_vEEmRKS4_, symObjAddr: 0x83D0, symBinAddr: 0x10000F704, symSize: 0x24 }
  - { offset: 0x306A3, size: 0x8, addend: 0x0, symName: __ZNKSt3__16vectorIP15SpriteComponentNS_9allocatorIS2_EEE7__allocB8ne180100Ev, symObjAddr: 0x83F4, symBinAddr: 0x10000F728, symSize: 0x28 }
  - { offset: 0x306C7, size: 0x8, addend: 0x0, symName: __ZNKSt3__19allocatorIP15SpriteComponentE8max_sizeB8ne180100Ev, symObjAddr: 0x841C, symBinAddr: 0x10000F750, symSize: 0x14 }
  - { offset: 0x306EB, size: 0x8, addend: 0x0, symName: __ZNKSt3__117__compressed_pairIPP15SpriteComponentNS_9allocatorIS2_EEE6secondB8ne180100Ev, symObjAddr: 0x8430, symBinAddr: 0x10000F764, symSize: 0x24 }
  - { offset: 0x3070F, size: 0x8, addend: 0x0, symName: __ZNKSt3__122__compressed_pair_elemINS_9allocatorIP15SpriteComponentEELi1ELb1EE5__getB8ne180100Ev, symObjAddr: 0x8454, symBinAddr: 0x10000F788, symSize: 0x14 }
  - { offset: 0x30733, size: 0x8, addend: 0x0, symName: __ZNKSt3__16vectorIP15SpriteComponentNS_9allocatorIS2_EEE9__end_capB8ne180100Ev, symObjAddr: 0x8468, symBinAddr: 0x10000F79C, symSize: 0x28 }
  - { offset: 0x30757, size: 0x8, addend: 0x0, symName: __ZNKSt3__117__compressed_pairIPP15SpriteComponentNS_9allocatorIS2_EEE5firstB8ne180100Ev, symObjAddr: 0x8490, symBinAddr: 0x10000F7C4, symSize: 0x24 }
  - { offset: 0x3077B, size: 0x8, addend: 0x0, symName: __ZNKSt3__122__compressed_pair_elemIPP15SpriteComponentLi0ELb0EE5__getB8ne180100Ev, symObjAddr: 0x84B4, symBinAddr: 0x10000F7E8, symSize: 0x14 }
  - { offset: 0x307A0, size: 0x8, addend: 0x0, symName: __ZNSt3__114__split_bufferIP15SpriteComponentRNS_9allocatorIS2_EEEC2EmmS5_, symObjAddr: 0x84C8, symBinAddr: 0x10000F7FC, symSize: 0xD4 }
  - { offset: 0x30811, size: 0x8, addend: 0x0, symName: __ZNSt3__117__compressed_pairIPP15SpriteComponentRNS_9allocatorIS2_EEEC1B8ne180100IDnS6_EEOT_OT0_, symObjAddr: 0x859C, symBinAddr: 0x10000F8D0, symSize: 0x3C }
  - { offset: 0x30867, size: 0x8, addend: 0x0, symName: __ZNSt3__114__split_bufferIP15SpriteComponentRNS_9allocatorIS2_EEE7__allocB8ne180100Ev, symObjAddr: 0x8618, symBinAddr: 0x10000F94C, symSize: 0x28 }
  - { offset: 0x3088B, size: 0x8, addend: 0x0, symName: __ZNSt3__114__split_bufferIP15SpriteComponentRNS_9allocatorIS2_EEE9__end_capB8ne180100Ev, symObjAddr: 0x8640, symBinAddr: 0x10000F974, symSize: 0x28 }
  - { offset: 0x308AF, size: 0x8, addend: 0x0, symName: __ZNSt3__117__compressed_pairIPP15SpriteComponentRNS_9allocatorIS2_EEEC2B8ne180100IDnS6_EEOT_OT0_, symObjAddr: 0x8668, symBinAddr: 0x10000F99C, symSize: 0x48 }
  - { offset: 0x30905, size: 0x8, addend: 0x0, symName: __ZNSt3__122__compressed_pair_elemIRNS_9allocatorIP15SpriteComponentEELi1ELb0EEC2B8ne180100IS5_vEEOT_, symObjAddr: 0x86B0, symBinAddr: 0x10000F9E4, symSize: 0x20 }
  - { offset: 0x30945, size: 0x8, addend: 0x0, symName: __ZNSt3__19allocatorIP15SpriteComponentE8allocateB8ne180100Em, symObjAddr: 0x86D0, symBinAddr: 0x10000FA04, symSize: 0x58 }
  - { offset: 0x30977, size: 0x8, addend: 0x0, symName: __ZNSt3__117__compressed_pairIPP15SpriteComponentRNS_9allocatorIS2_EEE6secondB8ne180100Ev, symObjAddr: 0x8728, symBinAddr: 0x10000FA5C, symSize: 0x28 }
  - { offset: 0x3099B, size: 0x8, addend: 0x0, symName: __ZNSt3__122__compressed_pair_elemIRNS_9allocatorIP15SpriteComponentEELi1ELb0EE5__getB8ne180100Ev, symObjAddr: 0x8750, symBinAddr: 0x10000FA84, symSize: 0x18 }
  - { offset: 0x309BF, size: 0x8, addend: 0x0, symName: __ZNSt3__117__compressed_pairIPP15SpriteComponentRNS_9allocatorIS2_EEE5firstB8ne180100Ev, symObjAddr: 0x8768, symBinAddr: 0x10000FA9C, symSize: 0x24 }
  - { offset: 0x309E3, size: 0x8, addend: 0x0, symName: __ZNSt3__114__split_bufferIP15SpriteComponentRNS_9allocatorIS2_EEE18__construct_at_endINS_13move_iteratorIPS2_EELi0EEEvT_SB_, symObjAddr: 0x87CC, symBinAddr: 0x10000FB00, symSize: 0x60 }
  - { offset: 0x30A34, size: 0x8, addend: 0x0, symName: __ZNSt3__113move_iteratorIPP15SpriteComponentEC1B8ne180100ES3_, symObjAddr: 0x882C, symBinAddr: 0x10000FB60, symSize: 0x34 }
  - { offset: 0x30A74, size: 0x8, addend: 0x0, symName: __ZNKSt3__114__move_trivialclB8ne180100IP15SpriteComponentS3_Li0EEENS_4pairIPT_PT0_EES6_S6_S8_, symObjAddr: 0x89D8, symBinAddr: 0x10000FD0C, symSize: 0x48 }
  - { offset: 0x30ADA, size: 0x8, addend: 0x0, symName: __ZNSt3__14pairIPP15SpriteComponentS3_EC1B8ne180100IRS3_S3_Li0EEEOT_OT0_, symObjAddr: 0x8AD8, symBinAddr: 0x10000FE0C, symSize: 0x3C }
  - { offset: 0x30B36, size: 0x8, addend: 0x0, symName: __ZNSt3__14pairIPP15SpriteComponentS3_EC2B8ne180100IRS3_S3_Li0EEEOT_OT0_, symObjAddr: 0x8B14, symBinAddr: 0x10000FE48, symSize: 0x34 }
  - { offset: 0x30B92, size: 0x8, addend: 0x0, symName: __ZNSt3__114__split_bufferIP15SpriteComponentRNS_9allocatorIS2_EEE28__construct_at_end_with_sizeINS_13move_iteratorIPS2_EEEEvT_m, symObjAddr: 0x8B48, symBinAddr: 0x10000FE7C, symSize: 0xDC }
  - { offset: 0x30BF6, size: 0x8, addend: 0x0, symName: __ZNSt3__114__split_bufferIP15SpriteComponentRNS_9allocatorIS2_EEE21_ConstructTransactionC1B8ne180100EPPS2_m, symObjAddr: 0x8C60, symBinAddr: 0x10000FF94, symSize: 0x3C }
  - { offset: 0x30C3A, size: 0x8, addend: 0x0, symName: __ZNKSt3__113move_iteratorIPP15SpriteComponentEdeB8ne180100Ev, symObjAddr: 0x8C9C, symBinAddr: 0x10000FFD0, symSize: 0x18 }
  - { offset: 0x30C5E, size: 0x8, addend: 0x0, symName: __ZNSt3__113move_iteratorIPP15SpriteComponentEppB8ne180100Ev, symObjAddr: 0x8CB4, symBinAddr: 0x10000FFE8, symSize: 0x20 }
  - { offset: 0x30C82, size: 0x8, addend: 0x0, symName: __ZNSt3__114__split_bufferIP15SpriteComponentRNS_9allocatorIS2_EEE21_ConstructTransactionD1B8ne180100Ev, symObjAddr: 0x8CD4, symBinAddr: 0x100010008, symSize: 0x2C }
  - { offset: 0x30CAA, size: 0x8, addend: 0x0, symName: __ZNSt3__114__split_bufferIP15SpriteComponentRNS_9allocatorIS2_EEE21_ConstructTransactionC2B8ne180100EPPS2_m, symObjAddr: 0x8D00, symBinAddr: 0x100010034, symSize: 0x44 }
  - { offset: 0x30CEE, size: 0x8, addend: 0x0, symName: __ZNSt3__114__split_bufferIP15SpriteComponentRNS_9allocatorIS2_EEE21_ConstructTransactionD2B8ne180100Ev, symObjAddr: 0x8D44, symBinAddr: 0x100010078, symSize: 0x20 }
  - { offset: 0x30D16, size: 0x8, addend: 0x0, symName: __ZNKSt3__113move_iteratorIPP15SpriteComponentE4baseB8ne180100Ev, symObjAddr: 0x8DDC, symBinAddr: 0x100010110, symSize: 0x18 }
  - { offset: 0x30D3A, size: 0x8, addend: 0x0, symName: __ZNSt3__113move_iteratorIPP15SpriteComponentEC2B8ne180100ES3_, symObjAddr: 0x8DF4, symBinAddr: 0x100010128, symSize: 0x20 }
  - { offset: 0x30D70, size: 0x8, addend: 0x0, symName: __ZNKSt3__16vectorIP15SpriteComponentNS_9allocatorIS2_EEE17__annotate_deleteB8ne180100Ev, symObjAddr: 0x8E14, symBinAddr: 0x100010148, symSize: 0x10 }
  - { offset: 0x30D94, size: 0x8, addend: 0x0, symName: __ZNSt3__116reverse_iteratorIPP15SpriteComponentEC1B8ne180100ES3_, symObjAddr: 0x8E9C, symBinAddr: 0x1000101D0, symSize: 0x34 }
  - { offset: 0x30DCA, size: 0x8, addend: 0x0, symName: __ZNKSt3__116reverse_iteratorIPP15SpriteComponentE4baseB8ne180100Ev, symObjAddr: 0x8ED0, symBinAddr: 0x100010204, symSize: 0x18 }
  - { offset: 0x30DEE, size: 0x8, addend: 0x0, symName: __ZNKSt3__16vectorIP15SpriteComponentNS_9allocatorIS2_EEE14__annotate_newB8ne180100Em, symObjAddr: 0x8F20, symBinAddr: 0x100010254, symSize: 0x14 }
  - { offset: 0x30E3A, size: 0x8, addend: 0x0, symName: __ZNKSt3__111__move_loopINS_17_ClassicAlgPolicyEEclB8ne180100INS_16reverse_iteratorIPP15SpriteComponentEES8_S8_EENS_4pairIT_T1_EESA_T0_SB_, symObjAddr: 0x9224, symBinAddr: 0x100010558, symSize: 0xA0 }
  - { offset: 0x30EA8, size: 0x8, addend: 0x0, symName: __ZNSt3__18_IterOpsINS_17_ClassicAlgPolicyEE11__iter_moveB8ne180100IRNS_16reverse_iteratorIPP15SpriteComponentEELi0EEEDTclsr3stdE4movedeclsr3stdE7declvalIRT_EEEEOSA_, symObjAddr: 0x9458, symBinAddr: 0x10001078C, symSize: 0x28 }
  - { offset: 0x30ED9, size: 0x8, addend: 0x0, symName: __ZNKSt3__116reverse_iteratorIPP15SpriteComponentEdeB8ne180100Ev, symObjAddr: 0x9480, symBinAddr: 0x1000107B4, symSize: 0x28 }
  - { offset: 0x30F0B, size: 0x8, addend: 0x0, symName: __ZNSt3__116reverse_iteratorIPP15SpriteComponentEppB8ne180100Ev, symObjAddr: 0x94A8, symBinAddr: 0x1000107DC, symSize: 0x20 }
  - { offset: 0x30F2F, size: 0x8, addend: 0x0, symName: __ZNSt3__18_IterOpsINS_17_ClassicAlgPolicyEE25__validate_iter_referenceB8ne180100IRNS_16reverse_iteratorIPP15SpriteComponentEEEEvv, symObjAddr: 0x94C8, symBinAddr: 0x1000107FC, symSize: 0x4 }
  - { offset: 0x30F4C, size: 0x8, addend: 0x0, symName: __ZNSt3__118__unwrap_iter_implINS_16reverse_iteratorIPP15SpriteComponentEELb0EE8__unwrapB8ne180100ES5_, symObjAddr: 0x94CC, symBinAddr: 0x100010800, symSize: 0x24 }
  - { offset: 0x30F73, size: 0x8, addend: 0x0, symName: __ZNSt3__14pairINS_16reverse_iteratorIPP15SpriteComponentEES5_EC1B8ne180100IS5_S5_Li0EEEOT_OT0_, symObjAddr: 0x94F0, symBinAddr: 0x100010824, symSize: 0x3C }
  - { offset: 0x30FCF, size: 0x8, addend: 0x0, symName: __ZNSt3__14pairINS_16reverse_iteratorIPP15SpriteComponentEES5_EC2B8ne180100IS5_S5_Li0EEEOT_OT0_, symObjAddr: 0x952C, symBinAddr: 0x100010860, symSize: 0x34 }
  - { offset: 0x3102B, size: 0x8, addend: 0x0, symName: __ZNSt3__118__unwrap_iter_implINS_16reverse_iteratorIPP15SpriteComponentEELb0EE8__rewrapB8ne180100ES5_S5_, symObjAddr: 0x9560, symBinAddr: 0x100010894, symSize: 0x2C }
  - { offset: 0x31057, size: 0x8, addend: 0x0, symName: __ZNSt3__116reverse_iteratorIPP15SpriteComponentEC2B8ne180100ES3_, symObjAddr: 0x958C, symBinAddr: 0x1000108C0, symSize: 0x28 }
  - { offset: 0x3108E, size: 0x8, addend: 0x0, symName: __ZNSt3__114__split_bufferIP15SpriteComponentRNS_9allocatorIS2_EEED2Ev, symObjAddr: 0x95B4, symBinAddr: 0x1000108E8, symSize: 0x8C }
  - { offset: 0x310B8, size: 0x8, addend: 0x0, symName: __ZNSt3__114__split_bufferIP15SpriteComponentRNS_9allocatorIS2_EEE5clearB8ne180100Ev, symObjAddr: 0x9640, symBinAddr: 0x100010974, symSize: 0x28 }
  - { offset: 0x310DC, size: 0x8, addend: 0x0, symName: __ZNSt3__116allocator_traitsINS_9allocatorIP15SpriteComponentEEE10deallocateB8ne180100ERS4_PS3_m, symObjAddr: 0x9668, symBinAddr: 0x10001099C, symSize: 0x34 }
  - { offset: 0x3111D, size: 0x8, addend: 0x0, symName: __ZNKSt3__114__split_bufferIP15SpriteComponentRNS_9allocatorIS2_EEE8capacityB8ne180100Ev, symObjAddr: 0x969C, symBinAddr: 0x1000109D0, symSize: 0x40 }
  - { offset: 0x31141, size: 0x8, addend: 0x0, symName: __ZNSt3__114__split_bufferIP15SpriteComponentRNS_9allocatorIS2_EEE17__destruct_at_endB8ne180100EPS2_, symObjAddr: 0x96DC, symBinAddr: 0x100010A10, symSize: 0x2C }
  - { offset: 0x31173, size: 0x8, addend: 0x0, symName: __ZNSt3__114__split_bufferIP15SpriteComponentRNS_9allocatorIS2_EEE17__destruct_at_endB8ne180100EPS2_NS_17integral_constantIbLb0EEE, symObjAddr: 0x9708, symBinAddr: 0x100010A3C, symSize: 0x80 }
  - { offset: 0x311B1, size: 0x8, addend: 0x0, symName: __ZNSt3__116allocator_traitsINS_9allocatorIP15SpriteComponentEEE7destroyB8ne180100IS3_vEEvRS4_PT_, symObjAddr: 0x9788, symBinAddr: 0x100010ABC, symSize: 0x2C }
  - { offset: 0x311ED, size: 0x8, addend: 0x0, symName: __ZNSt3__19allocatorIP15SpriteComponentE7destroyB8ne180100EPS2_, symObjAddr: 0x97B4, symBinAddr: 0x100010AE8, symSize: 0x14 }
  - { offset: 0x3121F, size: 0x8, addend: 0x0, symName: __ZNSt3__19allocatorIP15SpriteComponentE10deallocateB8ne180100EPS2_m, symObjAddr: 0x97C8, symBinAddr: 0x100010AFC, symSize: 0x40 }
  - { offset: 0x3125F, size: 0x8, addend: 0x0, symName: __ZNKSt3__114__split_bufferIP15SpriteComponentRNS_9allocatorIS2_EEE9__end_capB8ne180100Ev, symObjAddr: 0x9808, symBinAddr: 0x100010B3C, symSize: 0x28 }
  - { offset: 0x31283, size: 0x8, addend: 0x0, symName: __ZNKSt3__117__compressed_pairIPP15SpriteComponentRNS_9allocatorIS2_EEE5firstB8ne180100Ev, symObjAddr: 0x9830, symBinAddr: 0x100010B64, symSize: 0x24 }
  - { offset: 0x312A7, size: 0x8, addend: 0x0, symName: __ZNSt3__118__unwrap_iter_implINS_11__wrap_iterIPP15SpriteComponentEELb1EE8__rewrapB8ne180100ES5_S4_, symObjAddr: 0x9954, symBinAddr: 0x100010C88, symSize: 0x5C }
  - { offset: 0x312D7, size: 0x8, addend: 0x0, symName: __ZNKSt3__111__wrap_iterIPP15SpriteComponentEplB8ne180100El, symObjAddr: 0x99B0, symBinAddr: 0x100010CE4, symSize: 0x3C }
  - { offset: 0x31317, size: 0x8, addend: 0x0, symName: __ZNSt3__111__wrap_iterIPP15SpriteComponentEpLB8ne180100El, symObjAddr: 0x9A10, symBinAddr: 0x100010D44, symSize: 0x28 }
  - { offset: 0x3134E, size: 0x8, addend: 0x0, symName: __ZNSt3__119__to_address_helperINS_11__wrap_iterIPP15SpriteComponentEEvE6__callB8ne180100ERKS5_, symObjAddr: 0x9A38, symBinAddr: 0x100010D6C, symSize: 0x30 }
  - { offset: 0x31370, size: 0x8, addend: 0x0, symName: __ZNSt3__114pointer_traitsINS_11__wrap_iterIPP15SpriteComponentEEE10to_addressB8ne180100ES5_, symObjAddr: 0x9A68, symBinAddr: 0x100010D9C, symSize: 0x2C }
  - { offset: 0x31392, size: 0x8, addend: 0x0, symName: __ZNKSt3__110__identityclB8ne180100IRP15SpriteComponentEEOT_S6_, symObjAddr: 0x9AC0, symBinAddr: 0x100010DF4, symSize: 0x18 }
  - { offset: 0x313CD, size: 0x8, addend: 0x0, symName: __ZNSt3__118__unwrap_iter_implINS_11__wrap_iterIPP15SpriteComponentEELb1EE8__unwrapB8ne180100ES5_, symObjAddr: 0x9AD8, symBinAddr: 0x100010E0C, symSize: 0x28 }
  - { offset: 0x313EF, size: 0x8, addend: 0x0, symName: __ZNKSt3__16vectorIP15SpriteComponentNS_9allocatorIS2_EEE6cbeginB8ne180100Ev, symObjAddr: 0x9B48, symBinAddr: 0x100010E7C, symSize: 0x2C }
  - { offset: 0x31413, size: 0x8, addend: 0x0, symName: __ZNSt3__16vectorIP15SpriteComponentNS_9allocatorIS2_EEE17__destruct_at_endB8ne180100EPS2_, symObjAddr: 0x9B74, symBinAddr: 0x100010EA8, symSize: 0x4C }
  - { offset: 0x31455, size: 0x8, addend: 0x0, symName: __ZNKSt3__16vectorIP15SpriteComponentNS_9allocatorIS2_EEE5beginB8ne180100Ev, symObjAddr: 0x9BC0, symBinAddr: 0x100010EF4, symSize: 0x30 }
  - { offset: 0x3147B, size: 0x8, addend: 0x0, symName: __ZNKSt3__16vectorIP15SpriteComponentNS_9allocatorIS2_EEE11__make_iterB8ne180100EPKS2_, symObjAddr: 0x9BF0, symBinAddr: 0x100010F24, symSize: 0x30 }
  - { offset: 0x314AE, size: 0x8, addend: 0x0, symName: __ZNSt3__111__wrap_iterIPKP15SpriteComponentEC1B8ne180100ES4_, symObjAddr: 0x9C20, symBinAddr: 0x100010F54, symSize: 0x34 }
  - { offset: 0x314E4, size: 0x8, addend: 0x0, symName: __ZNSt3__111__wrap_iterIPKP15SpriteComponentEC2B8ne180100ES4_, symObjAddr: 0x9C54, symBinAddr: 0x100010F88, symSize: 0x20 }
  - { offset: 0x3151A, size: 0x8, addend: 0x0, symName: __ZNSt3__16vectorIP15SpriteComponentNS_9allocatorIS2_EEE22__base_destruct_at_endB8ne180100EPS2_, symObjAddr: 0x9C74, symBinAddr: 0x100010FA8, symSize: 0x8C }
  - { offset: 0x3155C, size: 0x8, addend: 0x0, symName: __ZNKSt3__16vectorIP15SpriteComponentNS_9allocatorIS2_EEE17__annotate_shrinkB8ne180100Em, symObjAddr: 0x9D00, symBinAddr: 0x100011034, symSize: 0x14 }
  - { offset: 0x33B6F, size: 0x8, addend: 0x0, symName: __ZN5ColorL5BlackE, symObjAddr: 0x42124, symBinAddr: 0x10001C1CC, symSize: 0x0 }
  - { offset: 0x33B89, size: 0x8, addend: 0x0, symName: __ZN5ColorL5WhiteE, symObjAddr: 0x42130, symBinAddr: 0x10001C1D8, symSize: 0x0 }
  - { offset: 0x33BA3, size: 0x8, addend: 0x0, symName: __ZN5ColorL3RedE, symObjAddr: 0x4213C, symBinAddr: 0x10001C1E4, symSize: 0x0 }
  - { offset: 0x33BBD, size: 0x8, addend: 0x0, symName: __ZN5ColorL5GreenE, symObjAddr: 0x42148, symBinAddr: 0x10001C1F0, symSize: 0x0 }
  - { offset: 0x33BD7, size: 0x8, addend: 0x0, symName: __ZN5ColorL4BlueE, symObjAddr: 0x42154, symBinAddr: 0x10001C1FC, symSize: 0x0 }
  - { offset: 0x33BF1, size: 0x8, addend: 0x0, symName: __ZN5ColorL6YellowE, symObjAddr: 0x42160, symBinAddr: 0x10001C208, symSize: 0x0 }
  - { offset: 0x33C0B, size: 0x8, addend: 0x0, symName: __ZN5ColorL11LightYellowE, symObjAddr: 0x4216C, symBinAddr: 0x10001C214, symSize: 0x0 }
  - { offset: 0x33C25, size: 0x8, addend: 0x0, symName: __ZN5ColorL9LightBlueE, symObjAddr: 0x42178, symBinAddr: 0x10001C220, symSize: 0x0 }
  - { offset: 0x33C3F, size: 0x8, addend: 0x0, symName: __ZN5ColorL9LightPinkE, symObjAddr: 0x42184, symBinAddr: 0x10001C22C, symSize: 0x0 }
  - { offset: 0x33C59, size: 0x8, addend: 0x0, symName: __ZN5ColorL10LightGreenE, symObjAddr: 0x42190, symBinAddr: 0x10001C238, symSize: 0x0 }
  - { offset: 0x3B06B, size: 0x8, addend: 0x0, symName: __ZNSt3__16vectorIP15SpriteComponentNS_9allocatorIS2_EEE26__swap_out_circular_bufferERNS_14__split_bufferIS2_RS4_EE, symObjAddr: 0x1454, symBinAddr: 0x100011A58, symSize: 0x110 }
  - { offset: 0x3B13D, size: 0x8, addend: 0x0, symName: __ZN6GroundC2EP4Game, symObjAddr: 0x44, symBinAddr: 0x100011250, symSize: 0x28C }
  - { offset: 0x3B1C2, size: 0x8, addend: 0x0, symName: __ZN5Actor9GetHeightEv, symObjAddr: 0x33C, symBinAddr: 0x1000114DC, symSize: 0x18 }
  - { offset: 0x3B1EB, size: 0x8, addend: 0x0, symName: __ZN15SpriteComponent8SetFrameEi, symObjAddr: 0x3AC, symBinAddr: 0x1000114F4, symSize: 0x20 }
  - { offset: 0x3B21D, size: 0x8, addend: 0x0, symName: __ZN15SpriteComponent9SetOffsetEii, symObjAddr: 0x3CC, symBinAddr: 0x100011514, symSize: 0x2C }
  - { offset: 0x3B25D, size: 0x8, addend: 0x0, symName: __ZNSt3__16vectorIP15SpriteComponentNS_9allocatorIS2_EEE9push_backB8ne180100ERKS2_, symObjAddr: 0x3F8, symBinAddr: 0x100011540, symSize: 0x90 }
  - { offset: 0x3B2A1, size: 0x8, addend: 0x0, symName: __ZNSt3__16vectorIP15SpriteComponentNS_9allocatorIS2_EEED1B8ne180100Ev, symObjAddr: 0x488, symBinAddr: 0x1000115D0, symSize: 0x2C }
  - { offset: 0x3B2C9, size: 0x8, addend: 0x0, symName: __ZN6GroundC1EP4Game, symObjAddr: 0x4B4, symBinAddr: 0x1000115FC, symSize: 0x34 }
  - { offset: 0x3B301, size: 0x8, addend: 0x0, symName: __ZN6GroundD2Ev, symObjAddr: 0x4E8, symBinAddr: 0x100011630, symSize: 0x138 }
  - { offset: 0x3B379, size: 0x8, addend: 0x0, symName: __ZNSt3__16vectorIP15SpriteComponentNS_9allocatorIS2_EEE5clearB8ne180100Ev, symObjAddr: 0x6EC, symBinAddr: 0x100011768, symSize: 0x44 }
  - { offset: 0x3B3AC, size: 0x8, addend: 0x0, symName: __ZN6GroundD1Ev, symObjAddr: 0x730, symBinAddr: 0x1000117AC, symSize: 0x2C }
  - { offset: 0x3B3D6, size: 0x8, addend: 0x0, symName: __ZN6GroundD0Ev, symObjAddr: 0x75C, symBinAddr: 0x1000117D8, symSize: 0x30 }
  - { offset: 0x3B400, size: 0x8, addend: 0x0, symName: __ZN6Ground9getSpriteEv, symObjAddr: 0x78C, symBinAddr: 0x100011808, symSize: 0x18 }
  - { offset: 0x3B426, size: 0x8, addend: 0x0, symName: __ZNSt3__16vectorIP15SpriteComponentNS_9allocatorIS2_EEED2B8ne180100Ev, symObjAddr: 0x9B0, symBinAddr: 0x100011820, symSize: 0x44 }
  - { offset: 0x3B44E, size: 0x8, addend: 0x0, symName: __ZNSt3__16vectorIP15SpriteComponentNS_9allocatorIS2_EEE16__destroy_vectorC1B8ne180100ERS5_, symObjAddr: 0x9F4, symBinAddr: 0x100011864, symSize: 0x34 }
  - { offset: 0x3B485, size: 0x8, addend: 0x0, symName: __ZNSt3__16vectorIP15SpriteComponentNS_9allocatorIS2_EEE16__destroy_vectorclB8ne180100Ev, symObjAddr: 0xA28, symBinAddr: 0x100011898, symSize: 0x90 }
  - { offset: 0x3B4A9, size: 0x8, addend: 0x0, symName: __ZNSt3__16vectorIP15SpriteComponentNS_9allocatorIS2_EEE16__destroy_vectorC2B8ne180100ERS5_, symObjAddr: 0xAB8, symBinAddr: 0x100011928, symSize: 0x20 }
  - { offset: 0x3B4E0, size: 0x8, addend: 0x0, symName: __ZNSt3__16vectorIP15SpriteComponentNS_9allocatorIS2_EEE7__clearB8ne180100Ev, symObjAddr: 0xAD8, symBinAddr: 0x100011948, symSize: 0x28 }
  - { offset: 0x3B504, size: 0x8, addend: 0x0, symName: __ZNSt3__16vectorIP15SpriteComponentNS_9allocatorIS2_EEE21__push_back_slow_pathIRKS2_EEPS2_OT_, symObjAddr: 0x10EC, symBinAddr: 0x100011970, symSize: 0xE8 }
  - { offset: 0x3D471, size: 0x8, addend: 0x0, symName: __ZN5ColorL5BlackE, symObjAddr: 0x8EA8, symBinAddr: 0x10001C244, symSize: 0x0 }
  - { offset: 0x3D48B, size: 0x8, addend: 0x0, symName: __ZN5ColorL5WhiteE, symObjAddr: 0x8EB4, symBinAddr: 0x10001C250, symSize: 0x0 }
  - { offset: 0x3D4A5, size: 0x8, addend: 0x0, symName: __ZN5ColorL3RedE, symObjAddr: 0x8EC0, symBinAddr: 0x10001C25C, symSize: 0x0 }
  - { offset: 0x3D4BF, size: 0x8, addend: 0x0, symName: __ZN5ColorL5GreenE, symObjAddr: 0x8ECC, symBinAddr: 0x10001C268, symSize: 0x0 }
  - { offset: 0x3D4D9, size: 0x8, addend: 0x0, symName: __ZN5ColorL4BlueE, symObjAddr: 0x8ED8, symBinAddr: 0x10001C274, symSize: 0x0 }
  - { offset: 0x3D4F3, size: 0x8, addend: 0x0, symName: __ZN5ColorL6YellowE, symObjAddr: 0x8EE4, symBinAddr: 0x10001C280, symSize: 0x0 }
  - { offset: 0x3D50D, size: 0x8, addend: 0x0, symName: __ZN5ColorL11LightYellowE, symObjAddr: 0x8EF0, symBinAddr: 0x10001C28C, symSize: 0x0 }
  - { offset: 0x3D527, size: 0x8, addend: 0x0, symName: __ZN5ColorL9LightBlueE, symObjAddr: 0x8EFC, symBinAddr: 0x10001C298, symSize: 0x0 }
  - { offset: 0x3D541, size: 0x8, addend: 0x0, symName: __ZN5ColorL9LightPinkE, symObjAddr: 0x8F08, symBinAddr: 0x10001C2A4, symSize: 0x0 }
  - { offset: 0x3D55B, size: 0x8, addend: 0x0, symName: __ZN5ColorL10LightGreenE, symObjAddr: 0x8F14, symBinAddr: 0x10001C2B0, symSize: 0x0 }
  - { offset: 0x3D5C4, size: 0x8, addend: 0x0, symName: __ZN7Vector24ZeroE, symObjAddr: 0x8F20, symBinAddr: 0x10001C514, symSize: 0x0 }
  - { offset: 0x3D60F, size: 0x8, addend: 0x0, symName: __ZN7Vector25UnitXE, symObjAddr: 0x8F28, symBinAddr: 0x10001C51C, symSize: 0x0 }
  - { offset: 0x3D623, size: 0x8, addend: 0x0, symName: __ZN7Vector25UnitYE, symObjAddr: 0x8F30, symBinAddr: 0x10001C524, symSize: 0x0 }
  - { offset: 0x3D637, size: 0x8, addend: 0x0, symName: __ZN7Vector28NegUnitXE, symObjAddr: 0x8F38, symBinAddr: 0x10001C52C, symSize: 0x0 }
  - { offset: 0x3D64B, size: 0x8, addend: 0x0, symName: __ZN7Vector28NegUnitYE, symObjAddr: 0x8F40, symBinAddr: 0x10001C534, symSize: 0x0 }
  - { offset: 0x3D65F, size: 0x8, addend: 0x0, symName: __ZN7Vector34ZeroE, symObjAddr: 0x8F48, symBinAddr: 0x10001C53C, symSize: 0x0 }
  - { offset: 0x3D673, size: 0x8, addend: 0x0, symName: __ZN7Vector35UnitXE, symObjAddr: 0x8F54, symBinAddr: 0x10001C548, symSize: 0x0 }
  - { offset: 0x3D687, size: 0x8, addend: 0x0, symName: __ZN7Vector35UnitYE, symObjAddr: 0x8F60, symBinAddr: 0x10001C554, symSize: 0x0 }
  - { offset: 0x3D69B, size: 0x8, addend: 0x0, symName: __ZN7Vector35UnitZE, symObjAddr: 0x8F6C, symBinAddr: 0x10001C560, symSize: 0x0 }
  - { offset: 0x3D6AF, size: 0x8, addend: 0x0, symName: __ZN7Vector38NegUnitXE, symObjAddr: 0x8F78, symBinAddr: 0x10001C56C, symSize: 0x0 }
  - { offset: 0x3D6C3, size: 0x8, addend: 0x0, symName: __ZN7Vector38NegUnitYE, symObjAddr: 0x8F84, symBinAddr: 0x10001C578, symSize: 0x0 }
  - { offset: 0x3D6D7, size: 0x8, addend: 0x0, symName: __ZN7Vector38NegUnitZE, symObjAddr: 0x8F90, symBinAddr: 0x10001C584, symSize: 0x0 }
  - { offset: 0x3D70B, size: 0x8, addend: 0x0, symName: __ZN4Math8NearZeroEff, symObjAddr: 0x518, symBinAddr: 0x100012208, symSize: 0x6C }
  - { offset: 0x3D745, size: 0x8, addend: 0x0, symName: __ZN4Math3AbsEf, symObjAddr: 0x584, symBinAddr: 0x100012274, symSize: 0x24 }
  - { offset: 0x3D779, size: 0x8, addend: 0x0, symName: __ZN7Vector38InfinityE, symObjAddr: 0x8F9C, symBinAddr: 0x10001C590, symSize: 0x0 }
  - { offset: 0x3D78D, size: 0x8, addend: 0x0, symName: __ZN7Vector311NegInfinityE, symObjAddr: 0x8FA8, symBinAddr: 0x10001C59C, symSize: 0x0 }
  - { offset: 0x3D7A1, size: 0x8, addend: 0x0, symName: __ZN7Matrix38IdentityE, symObjAddr: 0x8FB4, symBinAddr: 0x10001C5A8, symSize: 0x0 }
  - { offset: 0x3D7B5, size: 0x8, addend: 0x0, symName: __ZN7Matrix48IdentityE, symObjAddr: 0x8FD8, symBinAddr: 0x10001C5CC, symSize: 0x0 }
  - { offset: 0x3D7C9, size: 0x8, addend: 0x0, symName: __ZN10Quaternion8IdentityE, symObjAddr: 0x9018, symBinAddr: 0x10001C60C, symSize: 0x0 }
  - { offset: 0x3D7E3, size: 0x8, addend: 0x0, symName: __ZL7m3Ident, symObjAddr: 0x1AC4, symBinAddr: 0x10001C000, symSize: 0x0 }
  - { offset: 0x3D7FD, size: 0x8, addend: 0x0, symName: __ZL7m4Ident, symObjAddr: 0x1AE8, symBinAddr: 0x10001C024, symSize: 0x0 }
  - { offset: 0x3D80A, size: 0x8, addend: 0x0, symName: __ZN7Matrix3C1EPA3_f, symObjAddr: 0x80, symBinAddr: 0x100011D70, symSize: 0x34 }
  - { offset: 0x3D841, size: 0x8, addend: 0x0, symName: __ZN7Matrix4C1EPA4_f, symObjAddr: 0xB4, symBinAddr: 0x100011DA4, symSize: 0x34 }
  - { offset: 0x3D878, size: 0x8, addend: 0x0, symName: __ZN10QuaternionC1Effff, symObjAddr: 0xE8, symBinAddr: 0x100011DD8, symSize: 0x4C }
  - { offset: 0x3D8DD, size: 0x8, addend: 0x0, symName: __ZN7Vector29TransformERKS_RK7Matrix3f, symObjAddr: 0x134, symBinAddr: 0x100011E24, symSize: 0xAC }
  - { offset: 0x3D92B, size: 0x8, addend: 0x0, symName: __ZN7Vector2C1Ev, symObjAddr: 0x1E0, symBinAddr: 0x100011ED0, symSize: 0x2C }
  - { offset: 0x3D954, size: 0x8, addend: 0x0, symName: __ZN7Vector39TransformERKS_RK7Matrix4f, symObjAddr: 0x20C, symBinAddr: 0x100011EFC, symSize: 0x128 }
  - { offset: 0x3D9A2, size: 0x8, addend: 0x0, symName: __ZN7Vector3C1Ev, symObjAddr: 0x334, symBinAddr: 0x100012024, symSize: 0x2C }
  - { offset: 0x3D9CB, size: 0x8, addend: 0x0, symName: __ZN7Vector321TransformWithPerspDivERKS_RK7Matrix4f, symObjAddr: 0x360, symBinAddr: 0x100012050, symSize: 0x1B8 }
  - { offset: 0x3DA27, size: 0x8, addend: 0x0, symName: __ZN7Vector3mLEf, symObjAddr: 0x5A8, symBinAddr: 0x100012298, symSize: 0x48 }
  - { offset: 0x3DA5B, size: 0x8, addend: 0x0, symName: __ZN7Vector39TransformERKS_RK10Quaternion, symObjAddr: 0x5F0, symBinAddr: 0x1000122E0, symSize: 0xFC }
  - { offset: 0x3DAA9, size: 0x8, addend: 0x0, symName: __ZmlfRK7Vector3, symObjAddr: 0x6EC, symBinAddr: 0x1000123DC, symSize: 0x64 }
  - { offset: 0x3DAE6, size: 0x8, addend: 0x0, symName: __ZN7Vector35CrossERKS_S1_, symObjAddr: 0x750, symBinAddr: 0x100012440, symSize: 0xB8 }
  - { offset: 0x3DB27, size: 0x8, addend: 0x0, symName: __ZplRK7Vector3S1_, symObjAddr: 0x808, symBinAddr: 0x1000124F8, symSize: 0x70 }
  - { offset: 0x3DB64, size: 0x8, addend: 0x0, symName: __ZN7Vector3pLERKS_, symObjAddr: 0x878, symBinAddr: 0x100012568, symSize: 0x54 }
  - { offset: 0x3DB97, size: 0x8, addend: 0x0, symName: __ZN7Matrix46InvertEv, symObjAddr: 0x8CC, symBinAddr: 0x1000125BC, symSize: 0x8F0 }
  - { offset: 0x3DC4B, size: 0x8, addend: 0x0, symName: __ZN7Matrix420CreateFromQuaternionERK10Quaternion, symObjAddr: 0x11BC, symBinAddr: 0x100012EAC, symSize: 0x264 }
  - { offset: 0x3DC7D, size: 0x8, addend: 0x0, symName: __ZN7Matrix3C2EPA3_f, symObjAddr: 0x1484, symBinAddr: 0x100013110, symSize: 0x38 }
  - { offset: 0x3DCB4, size: 0x8, addend: 0x0, symName: __ZN7Matrix4C2EPA4_f, symObjAddr: 0x14BC, symBinAddr: 0x100013148, symSize: 0x38 }
  - { offset: 0x3DCEB, size: 0x8, addend: 0x0, symName: __ZN10QuaternionC2Effff, symObjAddr: 0x14F4, symBinAddr: 0x100013180, symSize: 0x4C }
  - { offset: 0x3DD4F, size: 0x8, addend: 0x0, symName: __ZN10Quaternion3SetEffff, symObjAddr: 0x1540, symBinAddr: 0x1000131CC, symSize: 0x44 }
  - { offset: 0x3DDAF, size: 0x8, addend: 0x0, symName: __ZN7Vector2C2Ev, symObjAddr: 0x1584, symBinAddr: 0x100013210, symSize: 0x20 }
  - { offset: 0x3DDD7, size: 0x8, addend: 0x0, symName: __ZN7Vector3C2Ev, symObjAddr: 0x15A4, symBinAddr: 0x100013230, symSize: 0x24 }
  - { offset: 0x3DE0E, size: 0x8, addend: 0x0, symName: __ZNSt3__16__math4fabsB8ne180100Ef, symObjAddr: 0x15C8, symBinAddr: 0x100013254, symSize: 0x18 }
  - { offset: 0x3ED98, size: 0x8, addend: 0x0, symName: __ZN5ColorL5BlackE, symObjAddr: 0x383C0, symBinAddr: 0x10001C2BC, symSize: 0x0 }
  - { offset: 0x3EDB2, size: 0x8, addend: 0x0, symName: __ZN5ColorL5WhiteE, symObjAddr: 0x383CC, symBinAddr: 0x10001C2C8, symSize: 0x0 }
  - { offset: 0x3EDCC, size: 0x8, addend: 0x0, symName: __ZN5ColorL3RedE, symObjAddr: 0x383D8, symBinAddr: 0x10001C2D4, symSize: 0x0 }
  - { offset: 0x3EDE6, size: 0x8, addend: 0x0, symName: __ZN5ColorL5GreenE, symObjAddr: 0x383E4, symBinAddr: 0x10001C2E0, symSize: 0x0 }
  - { offset: 0x3EE00, size: 0x8, addend: 0x0, symName: __ZN5ColorL4BlueE, symObjAddr: 0x383F0, symBinAddr: 0x10001C2EC, symSize: 0x0 }
  - { offset: 0x3EE1A, size: 0x8, addend: 0x0, symName: __ZN5ColorL6YellowE, symObjAddr: 0x383FC, symBinAddr: 0x10001C2F8, symSize: 0x0 }
  - { offset: 0x3EE34, size: 0x8, addend: 0x0, symName: __ZN5ColorL11LightYellowE, symObjAddr: 0x38408, symBinAddr: 0x10001C304, symSize: 0x0 }
  - { offset: 0x3EE4E, size: 0x8, addend: 0x0, symName: __ZN5ColorL9LightBlueE, symObjAddr: 0x38414, symBinAddr: 0x10001C310, symSize: 0x0 }
  - { offset: 0x3EE68, size: 0x8, addend: 0x0, symName: __ZN5ColorL9LightPinkE, symObjAddr: 0x38420, symBinAddr: 0x10001C31C, symSize: 0x0 }
  - { offset: 0x3EE82, size: 0x8, addend: 0x0, symName: __ZN5ColorL10LightGreenE, symObjAddr: 0x3842C, symBinAddr: 0x10001C328, symSize: 0x0 }
  - { offset: 0x459BC, size: 0x8, addend: 0x0, symName: _main, symObjAddr: 0x44, symBinAddr: 0x100013750, symSize: 0xA8 }
  - { offset: 0x45A0E, size: 0x8, addend: 0x0, symName: __ZN4GameD1Ev, symObjAddr: 0xEC, symBinAddr: 0x1000137F8, symSize: 0x2C }
  - { offset: 0x45A38, size: 0x8, addend: 0x0, symName: __ZN4GameD2Ev, symObjAddr: 0x150, symBinAddr: 0x100013824, symSize: 0x48 }
  - { offset: 0x45A62, size: 0x8, addend: 0x0, symName: __ZNSt3__113unordered_mapINS_12basic_stringIcNS_11char_traitsIcEENS_9allocatorIcEEEEP11SDL_TextureNS_4hashIS6_EENS_8equal_toIS6_EENS4_INS_4pairIKS6_S8_EEEEED1B8ne180100Ev, symObjAddr: 0x198, symBinAddr: 0x10001386C, symSize: 0x2C }
  - { offset: 0x45A8A, size: 0x8, addend: 0x0, symName: __ZNSt3__16vectorIP5ActorNS_9allocatorIS2_EEED1B8ne180100Ev, symObjAddr: 0x1F0, symBinAddr: 0x100013898, symSize: 0x2C }
  - { offset: 0x45AB2, size: 0x8, addend: 0x0, symName: __ZNSt3__113unordered_mapINS_12basic_stringIcNS_11char_traitsIcEENS_9allocatorIcEEEEP11SDL_TextureNS_4hashIS6_EENS_8equal_toIS6_EENS4_INS_4pairIKS6_S8_EEEEED2B8ne180100Ev, symObjAddr: 0x21C, symBinAddr: 0x1000138C4, symSize: 0x2C }
  - { offset: 0x45ADB, size: 0x8, addend: 0x0, symName: __ZNSt3__112__hash_tableINS_17__hash_value_typeINS_12basic_stringIcNS_11char_traitsIcEENS_9allocatorIcEEEEP11SDL_TextureEENS_22__unordered_map_hasherIS7_SA_NS_4hashIS7_EENS_8equal_toIS7_EELb1EEENS_21__unordered_map_equalIS7_SA_SF_SD_Lb1EEENS5_ISA_EEED1Ev, symObjAddr: 0x248, symBinAddr: 0x1000138F0, symSize: 0x2C }
  - { offset: 0x45B06, size: 0x8, addend: 0x0, symName: __ZNSt3__112__hash_tableINS_17__hash_value_typeINS_12basic_stringIcNS_11char_traitsIcEENS_9allocatorIcEEEEP11SDL_TextureEENS_22__unordered_map_hasherIS7_SA_NS_4hashIS7_EENS_8equal_toIS7_EELb1EEENS_21__unordered_map_equalIS7_SA_SF_SD_Lb1EEENS5_ISA_EEED2Ev, symObjAddr: 0x274, symBinAddr: 0x10001391C, symSize: 0x48 }
  - { offset: 0x45B30, size: 0x8, addend: 0x0, symName: __ZNSt3__112__hash_tableINS_17__hash_value_typeINS_12basic_stringIcNS_11char_traitsIcEENS_9allocatorIcEEEEP11SDL_TextureEENS_22__unordered_map_hasherIS7_SA_NS_4hashIS7_EENS_8equal_toIS7_EELb1EEENS_21__unordered_map_equalIS7_SA_SF_SD_Lb1EEENS5_ISA_EEE17__deallocate_nodeEPNS_16__hash_node_baseIPNS_11__hash_nodeISA_PvEEEE, symObjAddr: 0x2BC, symBinAddr: 0x100013964, symSize: 0xC0 }
  - { offset: 0x45B98, size: 0x8, addend: 0x0, symName: __ZNSt3__110unique_ptrIA_PNS_16__hash_node_baseIPNS_11__hash_nodeINS_17__hash_value_typeINS_12basic_stringIcNS_11char_traitsIcEENS_9allocatorIcEEEEP11SDL_TextureEEPvEEEENS_25__bucket_list_deallocatorINS7_ISH_EEEEED1B8ne180100Ev, symObjAddr: 0x3A0, symBinAddr: 0x100013A24, symSize: 0x2C }
  - { offset: 0x45BC0, size: 0x8, addend: 0x0, symName: __ZNSt3__110unique_ptrIA_PNS_16__hash_node_baseIPNS_11__hash_nodeINS_17__hash_value_typeINS_12basic_stringIcNS_11char_traitsIcEENS_9allocatorIcEEEEP11SDL_TextureEEPvEEEENS_25__bucket_list_deallocatorINS7_ISH_EEEEED2B8ne180100Ev, symObjAddr: 0x7C8, symBinAddr: 0x100013A50, symSize: 0x30 }
  - { offset: 0x45BE8, size: 0x8, addend: 0x0, symName: __ZNSt3__110unique_ptrIA_PNS_16__hash_node_baseIPNS_11__hash_nodeINS_17__hash_value_typeINS_12basic_stringIcNS_11char_traitsIcEENS_9allocatorIcEEEEP11SDL_TextureEEPvEEEENS_25__bucket_list_deallocatorINS7_ISH_EEEEE5resetB8ne180100EDn, symObjAddr: 0x7F8, symBinAddr: 0x100013A80, symSize: 0x6C }
  - { offset: 0x45C26, size: 0x8, addend: 0x0, symName: __ZNSt3__16vectorIP5ActorNS_9allocatorIS2_EEED2B8ne180100Ev, symObjAddr: 0xE10, symBinAddr: 0x100013AEC, symSize: 0x44 }
  - { offset: 0x45C4E, size: 0x8, addend: 0x0, symName: __ZNSt3__16vectorIP5ActorNS_9allocatorIS2_EEE16__destroy_vectorC1B8ne180100ERS5_, symObjAddr: 0xE54, symBinAddr: 0x100013B30, symSize: 0x34 }
  - { offset: 0x45C85, size: 0x8, addend: 0x0, symName: __ZNSt3__16vectorIP5ActorNS_9allocatorIS2_EEE16__destroy_vectorclB8ne180100Ev, symObjAddr: 0xE88, symBinAddr: 0x100013B64, symSize: 0x90 }
  - { offset: 0x45CA9, size: 0x8, addend: 0x0, symName: __ZNSt3__16vectorIP5ActorNS_9allocatorIS2_EEE16__destroy_vectorC2B8ne180100ERS5_, symObjAddr: 0xF18, symBinAddr: 0x100013BF4, symSize: 0x20 }
  - { offset: 0x45CE0, size: 0x8, addend: 0x0, symName: __ZNSt3__16vectorIP5ActorNS_9allocatorIS2_EEE7__clearB8ne180100Ev, symObjAddr: 0xF38, symBinAddr: 0x100013C14, symSize: 0x28 }
  - { offset: 0x47C03, size: 0x8, addend: 0x0, symName: __ZN5ColorL5BlackE, symObjAddr: 0x41420, symBinAddr: 0x10001C334, symSize: 0x0 }
  - { offset: 0x47C1D, size: 0x8, addend: 0x0, symName: __ZN5ColorL5WhiteE, symObjAddr: 0x4142C, symBinAddr: 0x10001C340, symSize: 0x0 }
  - { offset: 0x47C37, size: 0x8, addend: 0x0, symName: __ZN5ColorL3RedE, symObjAddr: 0x41438, symBinAddr: 0x10001C34C, symSize: 0x0 }
  - { offset: 0x47C51, size: 0x8, addend: 0x0, symName: __ZN5ColorL5GreenE, symObjAddr: 0x41444, symBinAddr: 0x10001C358, symSize: 0x0 }
  - { offset: 0x47C6B, size: 0x8, addend: 0x0, symName: __ZN5ColorL4BlueE, symObjAddr: 0x41450, symBinAddr: 0x10001C364, symSize: 0x0 }
  - { offset: 0x47C85, size: 0x8, addend: 0x0, symName: __ZN5ColorL6YellowE, symObjAddr: 0x4145C, symBinAddr: 0x10001C370, symSize: 0x0 }
  - { offset: 0x47C9F, size: 0x8, addend: 0x0, symName: __ZN5ColorL11LightYellowE, symObjAddr: 0x41468, symBinAddr: 0x10001C37C, symSize: 0x0 }
  - { offset: 0x47CB9, size: 0x8, addend: 0x0, symName: __ZN5ColorL9LightBlueE, symObjAddr: 0x41474, symBinAddr: 0x10001C388, symSize: 0x0 }
  - { offset: 0x47CD3, size: 0x8, addend: 0x0, symName: __ZN5ColorL9LightPinkE, symObjAddr: 0x41480, symBinAddr: 0x10001C394, symSize: 0x0 }
  - { offset: 0x47CED, size: 0x8, addend: 0x0, symName: __ZN5ColorL10LightGreenE, symObjAddr: 0x4148C, symBinAddr: 0x10001C3A0, symSize: 0x0 }
  - { offset: 0x4E9DA, size: 0x8, addend: 0x0, symName: __ZNSt3__124__put_character_sequenceB8ne180100IcNS_11char_traitsIcEEEERNS_13basic_ostreamIT_T0_EES7_PKS4_m, symObjAddr: 0xD10, symBinAddr: 0x1000149A0, symSize: 0x1EC }
  - { offset: 0x4F87C, size: 0x8, addend: 0x0, symName: __ZNSt3__14endlB8ne180100IcNS_11char_traitsIcEEEERNS_13basic_ostreamIT_T0_EES7_, symObjAddr: 0x448, symBinAddr: 0x100014248, symSize: 0x58 }
  - { offset: 0x4F8BC, size: 0x8, addend: 0x0, symName: __ZNSt3__1lsB8ne180100INS_11char_traitsIcEEEERNS_13basic_ostreamIcT_EES6_PKc, symObjAddr: 0x4A0, symBinAddr: 0x1000142A0, symSize: 0x48 }
  - { offset: 0x4F902, size: 0x8, addend: 0x0, symName: __ZNSt3__112__to_addressB8ne180100IP11SDL_TextureEEPT_S4_, symObjAddr: 0xA00, symBinAddr: 0x1000147B8, symSize: 0x14 }
  - { offset: 0x4F937, size: 0x8, addend: 0x0, symName: __ZNSt3__19use_facetB8ne180100INS_5ctypeIcEEEERKT_RKNS_6localeE, symObjAddr: 0xCAC, symBinAddr: 0x10001493C, symSize: 0x2C }
  - { offset: 0x4FE0E, size: 0x8, addend: 0x0, symName: __ZNSt3__116__pad_and_outputB8ne180100IcNS_11char_traitsIcEEEENS_19ostreambuf_iteratorIT_T0_EES6_PKS4_S8_S8_RNS_8ios_baseES4_, symObjAddr: 0xF4C, symBinAddr: 0x100014BA8, symSize: 0x240 }
  - { offset: 0x4FEDD, size: 0x8, addend: 0x0, symName: __ZNSt3__112__to_addressB8ne180100IcEEPT_S2_, symObjAddr: 0x14B4, symBinAddr: 0x100015018, symSize: 0x14 }
  - { offset: 0x51C28, size: 0x8, addend: 0x0, symName: __ZN19AnimSpriteComponentC2EP9Characteriii, symObjAddr: 0x44, symBinAddr: 0x100013E44, symSize: 0xD4 }
  - { offset: 0x51C8A, size: 0x8, addend: 0x0, symName: __ZNSt3__16vectorIP11SDL_TextureNS_9allocatorIS2_EEEC1B8ne180100Ev, symObjAddr: 0x118, symBinAddr: 0x100013F18, symSize: 0x2C }
  - { offset: 0x51CB2, size: 0x8, addend: 0x0, symName: __ZN9Character8getStateEv, symObjAddr: 0x144, symBinAddr: 0x100013F44, symSize: 0x18 }
  - { offset: 0x51CD6, size: 0x8, addend: 0x0, symName: __ZN19AnimSpriteComponent8setFrameEv, symObjAddr: 0x15C, symBinAddr: 0x100013F5C, symSize: 0xFC }
  - { offset: 0x51CFC, size: 0x8, addend: 0x0, symName: __ZNSt3__16vectorIP11SDL_TextureNS_9allocatorIS2_EEED1B8ne180100Ev, symObjAddr: 0x26C, symBinAddr: 0x10001406C, symSize: 0x2C }
  - { offset: 0x51D24, size: 0x8, addend: 0x0, symName: __ZN19AnimSpriteComponentC1EP9Characteriii, symObjAddr: 0x298, symBinAddr: 0x100014098, symSize: 0x4C }
  - { offset: 0x51D86, size: 0x8, addend: 0x0, symName: __ZN19AnimSpriteComponent6UpdateEf, symObjAddr: 0x2E4, symBinAddr: 0x1000140E4, symSize: 0x138 }
  - { offset: 0x51DBA, size: 0x8, addend: 0x0, symName: __ZNSt3__113basic_ostreamIcNS_11char_traitsIcEEElsB8ne180100EPFRS3_S4_E, symObjAddr: 0x41C, symBinAddr: 0x10001421C, symSize: 0x2C }
  - { offset: 0x51DEC, size: 0x8, addend: 0x0, symName: __ZN19AnimSpriteComponentD1Ev, symObjAddr: 0x4E8, symBinAddr: 0x1000142E8, symSize: 0x2C }
  - { offset: 0x51E16, size: 0x8, addend: 0x0, symName: __ZN19AnimSpriteComponentD0Ev, symObjAddr: 0x514, symBinAddr: 0x100014314, symSize: 0x30 }
  - { offset: 0x51E40, size: 0x8, addend: 0x0, symName: __ZN9Component19ProcessInput_EventsER9SDL_Event, symObjAddr: 0x544, symBinAddr: 0x100014344, symSize: 0x14 }
  - { offset: 0x51E72, size: 0x8, addend: 0x0, symName: __ZN9Component23ProcessInput_ContinuousEPKh, symObjAddr: 0x558, symBinAddr: 0x100014358, symSize: 0x14 }
  - { offset: 0x51EA4, size: 0x8, addend: 0x0, symName: __ZN19AnimSpriteComponentD2Ev, symObjAddr: 0x5A4, symBinAddr: 0x10001436C, symSize: 0x48 }
  - { offset: 0x51ECE, size: 0x8, addend: 0x0, symName: __ZNSt3__16vectorIP11SDL_TextureNS_9allocatorIS2_EEEC2B8ne180100Ev, symObjAddr: 0x5EC, symBinAddr: 0x1000143B4, symSize: 0x4C }
  - { offset: 0x51F00, size: 0x8, addend: 0x0, symName: __ZNSt3__117__compressed_pairIPP11SDL_TextureNS_9allocatorIS2_EEEC1B8ne180100IDnNS_18__default_init_tagEEEOT_OT0_, symObjAddr: 0x638, symBinAddr: 0x100014400, symSize: 0x3C }
  - { offset: 0x51F56, size: 0x8, addend: 0x0, symName: __ZNSt3__117__compressed_pairIPP11SDL_TextureNS_9allocatorIS2_EEEC2B8ne180100IDnNS_18__default_init_tagEEEOT_OT0_, symObjAddr: 0x684, symBinAddr: 0x10001443C, symSize: 0x40 }
  - { offset: 0x51FAC, size: 0x8, addend: 0x0, symName: __ZNSt3__122__compressed_pair_elemIPP11SDL_TextureLi0ELb0EEC2B8ne180100IDnvEEOT_, symObjAddr: 0x6C4, symBinAddr: 0x10001447C, symSize: 0x1C }
  - { offset: 0x51FEC, size: 0x8, addend: 0x0, symName: __ZNSt3__122__compressed_pair_elemINS_9allocatorIP11SDL_TextureEELi1ELb1EEC2B8ne180100ENS_18__default_init_tagE, symObjAddr: 0x6E0, symBinAddr: 0x100014498, symSize: 0x2C }
  - { offset: 0x5201E, size: 0x8, addend: 0x0, symName: __ZNSt3__19allocatorIP11SDL_TextureEC2B8ne180100Ev, symObjAddr: 0x70C, symBinAddr: 0x1000144C4, symSize: 0x2C }
  - { offset: 0x52046, size: 0x8, addend: 0x0, symName: __ZNSt3__116__non_trivial_ifILb1ENS_9allocatorIP11SDL_TextureEEEC2B8ne180100Ev, symObjAddr: 0x738, symBinAddr: 0x1000144F0, symSize: 0x14 }
  - { offset: 0x5206E, size: 0x8, addend: 0x0, symName: __ZNSt3__16vectorIP11SDL_TextureNS_9allocatorIS2_EEED2B8ne180100Ev, symObjAddr: 0x74C, symBinAddr: 0x100014504, symSize: 0x44 }
  - { offset: 0x52096, size: 0x8, addend: 0x0, symName: __ZNSt3__16vectorIP11SDL_TextureNS_9allocatorIS2_EEE16__destroy_vectorC1B8ne180100ERS5_, symObjAddr: 0x790, symBinAddr: 0x100014548, symSize: 0x34 }
  - { offset: 0x520CD, size: 0x8, addend: 0x0, symName: __ZNSt3__16vectorIP11SDL_TextureNS_9allocatorIS2_EEE16__destroy_vectorclB8ne180100Ev, symObjAddr: 0x7C4, symBinAddr: 0x10001457C, symSize: 0x90 }
  - { offset: 0x520F1, size: 0x8, addend: 0x0, symName: __ZNSt3__16vectorIP11SDL_TextureNS_9allocatorIS2_EEE16__destroy_vectorC2B8ne180100ERS5_, symObjAddr: 0x854, symBinAddr: 0x10001460C, symSize: 0x20 }
  - { offset: 0x52128, size: 0x8, addend: 0x0, symName: __ZNSt3__16vectorIP11SDL_TextureNS_9allocatorIS2_EEE7__clearB8ne180100Ev, symObjAddr: 0x874, symBinAddr: 0x10001462C, symSize: 0x28 }
  - { offset: 0x5214C, size: 0x8, addend: 0x0, symName: __ZNKSt3__16vectorIP11SDL_TextureNS_9allocatorIS2_EEE17__annotate_deleteB8ne180100Ev, symObjAddr: 0x89C, symBinAddr: 0x100014654, symSize: 0x10 }
  - { offset: 0x52170, size: 0x8, addend: 0x0, symName: __ZNSt3__116allocator_traitsINS_9allocatorIP11SDL_TextureEEE10deallocateB8ne180100ERS4_PS3_m, symObjAddr: 0x8AC, symBinAddr: 0x100014664, symSize: 0x34 }
  - { offset: 0x521B1, size: 0x8, addend: 0x0, symName: __ZNSt3__16vectorIP11SDL_TextureNS_9allocatorIS2_EEE7__allocB8ne180100Ev, symObjAddr: 0x8E0, symBinAddr: 0x100014698, symSize: 0x28 }
  - { offset: 0x521D5, size: 0x8, addend: 0x0, symName: __ZNKSt3__16vectorIP11SDL_TextureNS_9allocatorIS2_EEE8capacityB8ne180100Ev, symObjAddr: 0x908, symBinAddr: 0x1000146C0, symSize: 0x40 }
  - { offset: 0x521F9, size: 0x8, addend: 0x0, symName: __ZNSt3__16vectorIP11SDL_TextureNS_9allocatorIS2_EEE22__base_destruct_at_endB8ne180100EPS2_, symObjAddr: 0x948, symBinAddr: 0x100014700, symSize: 0x8C }
  - { offset: 0x5223B, size: 0x8, addend: 0x0, symName: __ZNSt3__116allocator_traitsINS_9allocatorIP11SDL_TextureEEE7destroyB8ne180100IS3_vEEvRS4_PT_, symObjAddr: 0x9D4, symBinAddr: 0x10001478C, symSize: 0x2C }
  - { offset: 0x52277, size: 0x8, addend: 0x0, symName: __ZNSt3__19allocatorIP11SDL_TextureE7destroyB8ne180100EPS2_, symObjAddr: 0xA14, symBinAddr: 0x1000147CC, symSize: 0x14 }
  - { offset: 0x522A9, size: 0x8, addend: 0x0, symName: __ZNSt3__19allocatorIP11SDL_TextureE10deallocateB8ne180100EPS2_m, symObjAddr: 0xA28, symBinAddr: 0x1000147E0, symSize: 0x40 }
  - { offset: 0x522E9, size: 0x8, addend: 0x0, symName: __ZNSt3__117__compressed_pairIPP11SDL_TextureNS_9allocatorIS2_EEE6secondB8ne180100Ev, symObjAddr: 0xB90, symBinAddr: 0x100014820, symSize: 0x24 }
  - { offset: 0x5230D, size: 0x8, addend: 0x0, symName: __ZNSt3__122__compressed_pair_elemINS_9allocatorIP11SDL_TextureEELi1ELb1EE5__getB8ne180100Ev, symObjAddr: 0xBB4, symBinAddr: 0x100014844, symSize: 0x14 }
  - { offset: 0x52331, size: 0x8, addend: 0x0, symName: __ZNKSt3__16vectorIP11SDL_TextureNS_9allocatorIS2_EEE9__end_capB8ne180100Ev, symObjAddr: 0xBC8, symBinAddr: 0x100014858, symSize: 0x28 }
  - { offset: 0x52355, size: 0x8, addend: 0x0, symName: __ZNKSt3__117__compressed_pairIPP11SDL_TextureNS_9allocatorIS2_EEE5firstB8ne180100Ev, symObjAddr: 0xBF0, symBinAddr: 0x100014880, symSize: 0x24 }
  - { offset: 0x52379, size: 0x8, addend: 0x0, symName: __ZNKSt3__122__compressed_pair_elemIPP11SDL_TextureLi0ELb0EE5__getB8ne180100Ev, symObjAddr: 0xC14, symBinAddr: 0x1000148A4, symSize: 0x14 }
  - { offset: 0x5239D, size: 0x8, addend: 0x0, symName: __ZNKSt3__19basic_iosIcNS_11char_traitsIcEEE5widenB8ne180100Ec, symObjAddr: 0xC28, symBinAddr: 0x1000148B8, symSize: 0x84 }
  - { offset: 0x52409, size: 0x8, addend: 0x0, symName: __ZNKSt3__15ctypeIcE5widenB8ne180100Ec, symObjAddr: 0xCD8, symBinAddr: 0x100014968, symSize: 0x38 }
  - { offset: 0x5245A, size: 0x8, addend: 0x0, symName: __ZNKSt3__113basic_ostreamIcNS_11char_traitsIcEEE6sentrycvbB8ne180100Ev, symObjAddr: 0xF30, symBinAddr: 0x100014B8C, symSize: 0x1C }
  - { offset: 0x5247E, size: 0x8, addend: 0x0, symName: __ZNSt3__119ostreambuf_iteratorIcNS_11char_traitsIcEEEC1B8ne180100ERNS_13basic_ostreamIcS2_EE, symObjAddr: 0x118C, symBinAddr: 0x100014DE8, symSize: 0x34 }
  - { offset: 0x524B5, size: 0x8, addend: 0x0, symName: __ZNKSt3__18ios_base5flagsB8ne180100Ev, symObjAddr: 0x11C0, symBinAddr: 0x100014E1C, symSize: 0x18 }
  - { offset: 0x524DB, size: 0x8, addend: 0x0, symName: __ZNKSt3__19basic_iosIcNS_11char_traitsIcEEE4fillB8ne180100Ev, symObjAddr: 0x11D8, symBinAddr: 0x100014E34, symSize: 0x64 }
  - { offset: 0x52501, size: 0x8, addend: 0x0, symName: __ZNKSt3__119ostreambuf_iteratorIcNS_11char_traitsIcEEE6failedB8ne180100Ev, symObjAddr: 0x123C, symBinAddr: 0x100014E98, symSize: 0x24 }
  - { offset: 0x52525, size: 0x8, addend: 0x0, symName: __ZNSt3__19basic_iosIcNS_11char_traitsIcEEE8setstateB8ne180100Ej, symObjAddr: 0x1260, symBinAddr: 0x100014EBC, symSize: 0x2C }
  - { offset: 0x52559, size: 0x8, addend: 0x0, symName: __ZNKSt3__18ios_base5widthB8ne180100Ev, symObjAddr: 0x128C, symBinAddr: 0x100014EE8, symSize: 0x18 }
  - { offset: 0x5257F, size: 0x8, addend: 0x0, symName: __ZNSt3__115basic_streambufIcNS_11char_traitsIcEEE5sputnB8ne180100EPKcl, symObjAddr: 0x12A4, symBinAddr: 0x100014F00, symSize: 0x3C }
  - { offset: 0x525BF, size: 0x8, addend: 0x0, symName: __ZNSt3__112basic_stringIcNS_11char_traitsIcEENS_9allocatorIcEEEC1B8ne180100Emc, symObjAddr: 0x12E0, symBinAddr: 0x100014F3C, symSize: 0x3C }
  - { offset: 0x52605, size: 0x8, addend: 0x0, symName: __ZNSt3__112basic_stringIcNS_11char_traitsIcEENS_9allocatorIcEEE4dataB8ne180100Ev, symObjAddr: 0x131C, symBinAddr: 0x100014F78, symSize: 0x28 }
  - { offset: 0x5262A, size: 0x8, addend: 0x0, symName: __ZNSt3__18ios_base5widthB8ne180100El, symObjAddr: 0x1344, symBinAddr: 0x100014FA0, symSize: 0x2C }
  - { offset: 0x5266E, size: 0x8, addend: 0x0, symName: __ZNSt3__112basic_stringIcNS_11char_traitsIcEENS_9allocatorIcEEEC2B8ne180100Emc, symObjAddr: 0x1370, symBinAddr: 0x100014FCC, symSize: 0x4C }
  - { offset: 0x526B4, size: 0x8, addend: 0x0, symName: __ZNSt3__112basic_stringIcNS_11char_traitsIcEENS_9allocatorIcEEE13__get_pointerB8ne180100Ev, symObjAddr: 0x14C8, symBinAddr: 0x10001502C, symSize: 0x54 }
  - { offset: 0x526D8, size: 0x8, addend: 0x0, symName: __ZNSt3__112basic_stringIcNS_11char_traitsIcEENS_9allocatorIcEEE18__get_long_pointerB8ne180100Ev, symObjAddr: 0x1554, symBinAddr: 0x100015080, symSize: 0x28 }
  - { offset: 0x526FC, size: 0x8, addend: 0x0, symName: __ZNSt3__112basic_stringIcNS_11char_traitsIcEENS_9allocatorIcEEE19__get_short_pointerB8ne180100Ev, symObjAddr: 0x157C, symBinAddr: 0x1000150A8, symSize: 0x28 }
  - { offset: 0x52720, size: 0x8, addend: 0x0, symName: __ZNSt3__117__compressed_pairINS_12basic_stringIcNS_11char_traitsIcEENS_9allocatorIcEEE5__repES5_E5firstB8ne180100Ev, symObjAddr: 0x15DC, symBinAddr: 0x1000150D0, symSize: 0x24 }
  - { offset: 0x52744, size: 0x8, addend: 0x0, symName: __ZNSt3__122__compressed_pair_elemINS_12basic_stringIcNS_11char_traitsIcEENS_9allocatorIcEEE5__repELi0ELb0EE5__getB8ne180100Ev, symObjAddr: 0x1600, symBinAddr: 0x1000150F4, symSize: 0x14 }
  - { offset: 0x52768, size: 0x8, addend: 0x0, symName: __ZNSt3__114pointer_traitsIPcE10pointer_toB8ne180100ERc, symObjAddr: 0x1614, symBinAddr: 0x100015108, symSize: 0x14 }
  - { offset: 0x5278A, size: 0x8, addend: 0x0, symName: __ZNSt3__119ostreambuf_iteratorIcNS_11char_traitsIcEEEC2B8ne180100ERNS_13basic_ostreamIcS2_EE, symObjAddr: 0x1628, symBinAddr: 0x10001511C, symSize: 0x54 }
  - { offset: 0x527C0, size: 0x8, addend: 0x0, symName: __ZNKSt3__19basic_iosIcNS_11char_traitsIcEEE5rdbufB8ne180100Ev, symObjAddr: 0x167C, symBinAddr: 0x100015170, symSize: 0x24 }
  - { offset: 0x527E6, size: 0x8, addend: 0x0, symName: __ZNKSt3__18ios_base5rdbufB8ne180100Ev, symObjAddr: 0x16A0, symBinAddr: 0x100015194, symSize: 0x18 }
  - { offset: 0x5280A, size: 0x8, addend: 0x0, symName: __ZNSt3__111char_traitsIcE11eq_int_typeB8ne180100Eii, symObjAddr: 0x16B8, symBinAddr: 0x1000151AC, symSize: 0x28 }
  - { offset: 0x5283D, size: 0x8, addend: 0x0, symName: __ZNSt3__111char_traitsIcE3eofB8ne180100Ev, symObjAddr: 0x16E0, symBinAddr: 0x1000151D4, symSize: 0x8 }
  - { offset: 0x52850, size: 0x8, addend: 0x0, symName: __ZNSt3__18ios_base8setstateB8ne180100Ej, symObjAddr: 0x16E8, symBinAddr: 0x1000151DC, symSize: 0x34 }
  - { offset: 0x547AB, size: 0x8, addend: 0x0, symName: __ZN5ColorL5BlackE, symObjAddr: 0xF86C, symBinAddr: 0x10001C3AC, symSize: 0x0 }
  - { offset: 0x547C5, size: 0x8, addend: 0x0, symName: __ZN5ColorL5WhiteE, symObjAddr: 0xF878, symBinAddr: 0x10001C3B8, symSize: 0x0 }
  - { offset: 0x547DF, size: 0x8, addend: 0x0, symName: __ZN5ColorL3RedE, symObjAddr: 0xF884, symBinAddr: 0x10001C3C4, symSize: 0x0 }
  - { offset: 0x547F9, size: 0x8, addend: 0x0, symName: __ZN5ColorL5GreenE, symObjAddr: 0xF890, symBinAddr: 0x10001C3D0, symSize: 0x0 }
  - { offset: 0x54813, size: 0x8, addend: 0x0, symName: __ZN5ColorL4BlueE, symObjAddr: 0xF89C, symBinAddr: 0x10001C3DC, symSize: 0x0 }
  - { offset: 0x5482D, size: 0x8, addend: 0x0, symName: __ZN5ColorL6YellowE, symObjAddr: 0xF8A8, symBinAddr: 0x10001C3E8, symSize: 0x0 }
  - { offset: 0x54847, size: 0x8, addend: 0x0, symName: __ZN5ColorL11LightYellowE, symObjAddr: 0xF8B4, symBinAddr: 0x10001C3F4, symSize: 0x0 }
  - { offset: 0x54861, size: 0x8, addend: 0x0, symName: __ZN5ColorL9LightBlueE, symObjAddr: 0xF8C0, symBinAddr: 0x10001C400, symSize: 0x0 }
  - { offset: 0x5487B, size: 0x8, addend: 0x0, symName: __ZN5ColorL9LightPinkE, symObjAddr: 0xF8CC, symBinAddr: 0x10001C40C, symSize: 0x0 }
  - { offset: 0x54895, size: 0x8, addend: 0x0, symName: __ZN5ColorL10LightGreenE, symObjAddr: 0xF8D8, symBinAddr: 0x10001C418, symSize: 0x0 }
  - { offset: 0x56392, size: 0x8, addend: 0x0, symName: __ZN9ComponentC2EP5Actori, symObjAddr: 0x44, symBinAddr: 0x100015418, symSize: 0x58 }
  - { offset: 0x563D8, size: 0x8, addend: 0x0, symName: __ZN9ComponentC1EP5Actori, symObjAddr: 0x9C, symBinAddr: 0x100015470, symSize: 0x3C }
  - { offset: 0x5641E, size: 0x8, addend: 0x0, symName: __ZN9ComponentD2Ev, symObjAddr: 0xD8, symBinAddr: 0x1000154AC, symSize: 0x48 }
  - { offset: 0x56448, size: 0x8, addend: 0x0, symName: __ZN9ComponentD1Ev, symObjAddr: 0x130, symBinAddr: 0x1000154F4, symSize: 0x2C }
  - { offset: 0x56472, size: 0x8, addend: 0x0, symName: __ZN9ComponentD0Ev, symObjAddr: 0x15C, symBinAddr: 0x100015520, symSize: 0x30 }
  - { offset: 0x5649C, size: 0x8, addend: 0x0, symName: __ZN9Component6UpdateEf, symObjAddr: 0x18C, symBinAddr: 0x100015550, symSize: 0x14 }
  - { offset: 0x583C0, size: 0x8, addend: 0x0, symName: __ZN5ColorL5BlackE, symObjAddr: 0x37820, symBinAddr: 0x10001C424, symSize: 0x0 }
  - { offset: 0x583DA, size: 0x8, addend: 0x0, symName: __ZN5ColorL5WhiteE, symObjAddr: 0x3782C, symBinAddr: 0x10001C430, symSize: 0x0 }
  - { offset: 0x583F4, size: 0x8, addend: 0x0, symName: __ZN5ColorL3RedE, symObjAddr: 0x37838, symBinAddr: 0x10001C43C, symSize: 0x0 }
  - { offset: 0x5840E, size: 0x8, addend: 0x0, symName: __ZN5ColorL5GreenE, symObjAddr: 0x37844, symBinAddr: 0x10001C448, symSize: 0x0 }
  - { offset: 0x58428, size: 0x8, addend: 0x0, symName: __ZN5ColorL4BlueE, symObjAddr: 0x37850, symBinAddr: 0x10001C454, symSize: 0x0 }
  - { offset: 0x58442, size: 0x8, addend: 0x0, symName: __ZN5ColorL6YellowE, symObjAddr: 0x3785C, symBinAddr: 0x10001C460, symSize: 0x0 }
  - { offset: 0x5845C, size: 0x8, addend: 0x0, symName: __ZN5ColorL11LightYellowE, symObjAddr: 0x37868, symBinAddr: 0x10001C46C, symSize: 0x0 }
  - { offset: 0x58476, size: 0x8, addend: 0x0, symName: __ZN5ColorL9LightBlueE, symObjAddr: 0x37874, symBinAddr: 0x10001C478, symSize: 0x0 }
  - { offset: 0x58490, size: 0x8, addend: 0x0, symName: __ZN5ColorL9LightPinkE, symObjAddr: 0x37880, symBinAddr: 0x10001C484, symSize: 0x0 }
  - { offset: 0x584AA, size: 0x8, addend: 0x0, symName: __ZN5ColorL10LightGreenE, symObjAddr: 0x3788C, symBinAddr: 0x10001C490, symSize: 0x0 }
  - { offset: 0x5F036, size: 0x8, addend: 0x0, symName: __ZN13MoveComponentC2EP9Characteri, symObjAddr: 0x44, symBinAddr: 0x10001576C, symSize: 0x70 }
  - { offset: 0x5F07C, size: 0x8, addend: 0x0, symName: __ZN13MoveComponentC1EP9Characteri, symObjAddr: 0xB4, symBinAddr: 0x1000157DC, symSize: 0x3C }
  - { offset: 0x5F0C2, size: 0x8, addend: 0x0, symName: __ZN13MoveComponent6UpdateEf, symObjAddr: 0xF0, symBinAddr: 0x100015818, symSize: 0x2C }
  - { offset: 0x5F0F6, size: 0x8, addend: 0x0, symName: __ZN13MoveComponent13updatePhysicsEf, symObjAddr: 0x11C, symBinAddr: 0x100015844, symSize: 0x1BC }
  - { offset: 0x5F154, size: 0x8, addend: 0x0, symName: __ZN5Actor7GetGameEv, symObjAddr: 0x2D8, symBinAddr: 0x100015A00, symSize: 0x18 }
  - { offset: 0x5F178, size: 0x8, addend: 0x0, symName: __ZN4Game14getScreenWidthEv, symObjAddr: 0x2F0, symBinAddr: 0x100015A18, symSize: 0x18 }
  - { offset: 0x5F19C, size: 0x8, addend: 0x0, symName: __ZN4Game15getScreenHeightEv, symObjAddr: 0x308, symBinAddr: 0x100015A30, symSize: 0x18 }
  - { offset: 0x5F1C0, size: 0x8, addend: 0x0, symName: __ZN9Character5moveYEi, symObjAddr: 0x320, symBinAddr: 0x100015A48, symSize: 0x28 }
  - { offset: 0x5F1F2, size: 0x8, addend: 0x0, symName: __ZN9Character5moveXEi, symObjAddr: 0x348, symBinAddr: 0x100015A70, symSize: 0x28 }
  - { offset: 0x5F224, size: 0x8, addend: 0x0, symName: __ZN5Actor4GetYEv, symObjAddr: 0x370, symBinAddr: 0x100015A98, symSize: 0x18 }
  - { offset: 0x5F248, size: 0x8, addend: 0x0, symName: __ZN5Actor4GetXEv, symObjAddr: 0x3A8, symBinAddr: 0x100015AB0, symSize: 0x18 }
  - { offset: 0x5F26C, size: 0x8, addend: 0x0, symName: __ZN5Actor8GetWidthEv, symObjAddr: 0x3E0, symBinAddr: 0x100015AC8, symSize: 0x18 }
  - { offset: 0x5F290, size: 0x8, addend: 0x0, symName: __ZN13MoveComponent19ProcessInput_EventsER9SDL_Event, symObjAddr: 0x3F8, symBinAddr: 0x100015AE0, symSize: 0x68 }
  - { offset: 0x5F2C4, size: 0x8, addend: 0x0, symName: __ZN13MoveComponent4jumpEv, symObjAddr: 0x460, symBinAddr: 0x100015B48, symSize: 0xAC }
  - { offset: 0x5F2F8, size: 0x8, addend: 0x0, symName: __ZN13MoveComponent23ProcessInput_ContinuousEPKh, symObjAddr: 0x50C, symBinAddr: 0x100015BF4, symSize: 0x114 }
  - { offset: 0x5F33A, size: 0x8, addend: 0x0, symName: __ZN13MoveComponent3runEi, symObjAddr: 0x620, symBinAddr: 0x100015D08, symSize: 0xB4 }
  - { offset: 0x5F37C, size: 0x8, addend: 0x0, symName: __ZN13MoveComponentD1Ev, symObjAddr: 0x6D4, symBinAddr: 0x100015DBC, symSize: 0x2C }
  - { offset: 0x5F3A6, size: 0x8, addend: 0x0, symName: __ZN13MoveComponentD0Ev, symObjAddr: 0x700, symBinAddr: 0x100015DE8, symSize: 0x30 }
  - { offset: 0x5F3D0, size: 0x8, addend: 0x0, symName: __ZN13MoveComponentD2Ev, symObjAddr: 0x768, symBinAddr: 0x100015E18, symSize: 0x2C }
  - { offset: 0x612E5, size: 0x8, addend: 0x0, symName: __ZN5ColorL5BlackE, symObjAddr: 0x331CC, symBinAddr: 0x10001C49C, symSize: 0x0 }
  - { offset: 0x612FF, size: 0x8, addend: 0x0, symName: __ZN5ColorL5WhiteE, symObjAddr: 0x331D8, symBinAddr: 0x10001C4A8, symSize: 0x0 }
  - { offset: 0x61319, size: 0x8, addend: 0x0, symName: __ZN5ColorL3RedE, symObjAddr: 0x331E4, symBinAddr: 0x10001C4B4, symSize: 0x0 }
  - { offset: 0x61333, size: 0x8, addend: 0x0, symName: __ZN5ColorL5GreenE, symObjAddr: 0x331F0, symBinAddr: 0x10001C4C0, symSize: 0x0 }
  - { offset: 0x6134D, size: 0x8, addend: 0x0, symName: __ZN5ColorL4BlueE, symObjAddr: 0x331FC, symBinAddr: 0x10001C4CC, symSize: 0x0 }
  - { offset: 0x61367, size: 0x8, addend: 0x0, symName: __ZN5ColorL6YellowE, symObjAddr: 0x33208, symBinAddr: 0x10001C4D8, symSize: 0x0 }
  - { offset: 0x61381, size: 0x8, addend: 0x0, symName: __ZN5ColorL11LightYellowE, symObjAddr: 0x33214, symBinAddr: 0x10001C4E4, symSize: 0x0 }
  - { offset: 0x6139B, size: 0x8, addend: 0x0, symName: __ZN5ColorL9LightBlueE, symObjAddr: 0x33220, symBinAddr: 0x10001C4F0, symSize: 0x0 }
  - { offset: 0x613B5, size: 0x8, addend: 0x0, symName: __ZN5ColorL9LightPinkE, symObjAddr: 0x3322C, symBinAddr: 0x10001C4FC, symSize: 0x0 }
  - { offset: 0x613CF, size: 0x8, addend: 0x0, symName: __ZN5ColorL10LightGreenE, symObjAddr: 0x33238, symBinAddr: 0x10001C508, symSize: 0x0 }
  - { offset: 0x67D82, size: 0x8, addend: 0x0, symName: __ZN15SpriteComponentC2EP5Actoriii, symObjAddr: 0x44, symBinAddr: 0x10001604C, symSize: 0xC4 }
  - { offset: 0x67DE4, size: 0x8, addend: 0x0, symName: __ZN15SpriteComponentC1EP5Actoriii, symObjAddr: 0x120, symBinAddr: 0x100016110, symSize: 0x4C }
  - { offset: 0x67E46, size: 0x8, addend: 0x0, symName: __ZN15SpriteComponentC2ERKS_, symObjAddr: 0x16C, symBinAddr: 0x10001615C, symSize: 0x104 }
  - { offset: 0x67E7E, size: 0x8, addend: 0x0, symName: __ZN15SpriteComponentC1ERKS_, symObjAddr: 0x288, symBinAddr: 0x100016260, symSize: 0x34 }
  - { offset: 0x67EB6, size: 0x8, addend: 0x0, symName: __ZN15SpriteComponentD2Ev, symObjAddr: 0x2BC, symBinAddr: 0x100016294, symSize: 0x64 }
  - { offset: 0x67EE0, size: 0x8, addend: 0x0, symName: __ZN15SpriteComponentD1Ev, symObjAddr: 0x330, symBinAddr: 0x1000162F8, symSize: 0x2C }
  - { offset: 0x67F0A, size: 0x8, addend: 0x0, symName: __ZN15SpriteComponentD0Ev, symObjAddr: 0x35C, symBinAddr: 0x100016324, symSize: 0x30 }
  - { offset: 0x67F34, size: 0x8, addend: 0x0, symName: __ZN15SpriteComponent4DrawEP12SDL_Renderer, symObjAddr: 0x38C, symBinAddr: 0x100016354, symSize: 0x144 }
  - { offset: 0x67F68, size: 0x8, addend: 0x0, symName: __ZNK5Actor8GetScaleEv, symObjAddr: 0x4D0, symBinAddr: 0x100016498, symSize: 0x18 }
  - { offset: 0x67F8C, size: 0x8, addend: 0x0, symName: __ZN15SpriteComponent10SetTextureEP11SDL_Texture, symObjAddr: 0x518, symBinAddr: 0x1000164B0, symSize: 0x44 }
  - { offset: 0x67FC0, size: 0x8, addend: 0x0, symName: __ZN15SpriteComponent7setFlipE16SDL_RendererFlip, symObjAddr: 0x55C, symBinAddr: 0x1000164F4, symSize: 0x20 }
...
